
Z:/git_wa/quartus/DE1_SoC_Computer/sw/getting_started.axf:     file format elf32-littlearm


Disassembly of section .text:

00000000 <__cs3_interrupt_vector>:
       0:	18 f0 9f e5 18 f0 9f e5 18 f0 9f e5 18 f0 9f e5     ................
      10:	18 f0 9f e5 18 f0 9f e5 18 f0 9f e5 18 f0 9f e5     ................
      20:	40 00 00 00 a8 3b 01 00 ac 3b 01 00 b0 3b 01 00     @....;...;...;..
      30:	b4 3b 01 00 a4 3b 01 00 b8 3b 01 00 bc 3b 01 00     .;...;...;...;..

00000040 <__cs3_reset>:
      40:	ea000026 	b	e0 <__cs3_start_asm_sim>

00000044 <__cs3_start_c>:
      44:	e59f608c 	ldr	r6, [pc, #140]	; d8 <__cs3_start_c+0x94>
      48:	e3560000 	cmp	r6, #0
      4c:	e92d4080 	push	{r7, lr}
      50:	e2466001 	sub	r6, r6, #1
      54:	0a00001e 	beq	d4 <__cs3_start_c+0x90>
      58:	e59f507c 	ldr	r5, [pc, #124]	; dc <__cs3_start_c+0x98>
      5c:	e3a00000 	mov	r0, #0
      60:	e3a01000 	mov	r1, #0
      64:	e515200c 	ldr	r2, [r5, #-12]
      68:	e515e010 	ldr	lr, [r5, #-16]
      6c:	e5154008 	ldr	r4, [r5, #-8]
      70:	e15e0002 	cmp	lr, r2
      74:	00822004 	addeq	r2, r2, r4
      78:	0a000009 	beq	a4 <__cs3_start_c+0x60>
      7c:	e3540000 	cmp	r4, #0
      80:	0a000007 	beq	a4 <__cs3_start_c+0x60>
      84:	e1a07002 	mov	r7, r2
      88:	e1a0c002 	mov	r12, r2
      8c:	e8be000c 	ldm	lr!, {r2, r3}
      90:	e8ac000c 	stmia	r12!, {r2, r3}
      94:	e067300c 	rsb	r3, r7, r12
      98:	e1540003 	cmp	r4, r3
      9c:	e1a0200c 	mov	r2, r12
      a0:	1afffff9 	bne	8c <__cs3_start_c+0x48>
      a4:	e515e004 	ldr	lr, [r5, #-4]
      a8:	e35e0000 	cmp	lr, #0
      ac:	11a03002 	movne	r3, r2
      b0:	0a000003 	beq	c4 <__cs3_start_c+0x80>
      b4:	e8a30003 	stmia	r3!, {r0, r1}
      b8:	e062c003 	rsb	r12, r2, r3
      bc:	e15e000c 	cmp	lr, r12
      c0:	1afffffb 	bne	b4 <__cs3_start_c+0x70>
      c4:	e2466001 	sub	r6, r6, #1
      c8:	e3760001 	cmn	r6, #1
      cc:	e2855014 	add	r5, r5, #20
      d0:	1affffe3 	bne	64 <__cs3_start_c+0x20>
      d4:	eb004cfd 	bl	134d0 <__cs3_premain>
      d8:	00000001 	.word	0x00000001
      dc:	00014144 	.word	0x00014144

000000e0 <__cs3_start_asm_sim>:
      e0:	e28f103c 	add	r1, pc, #60	; 0x3c
      e4:	e3a00016 	mov	r0, #22
      e8:	ef123456 	svc	0x00123456
      ec:	e3500000 	cmp	r0, #0
      f0:	ba000008 	blt	118 <__cs3_start_asm_sim+0x38>
      f4:	e59f2028 	ldr	r2, [pc, #40]	; 124 <__cs3_heap_start_ptr>
      f8:	e59fd01c 	ldr	sp, [pc, #28]	; 11c <__cs3_start_asm_sim+0x3c>
      fc:	e5920008 	ldr	r0, [r2, #8]
     100:	e3500000 	cmp	r0, #0
     104:	11a0d000 	movne	sp, r0
     108:	e59f1010 	ldr	r1, [pc, #16]	; 120 <__cs3_start_asm_sim+0x40>
     10c:	e5920004 	ldr	r0, [r2, #4]
     110:	e3500000 	cmp	r0, #0
     114:	15810000 	strne	r0, [r1]
     118:	eaffffc9 	b	44 <__cs3_start_c>
     11c:	3ffffff8 	.word	0x3ffffff8
     120:	00014a40 	.word	0x00014a40

00000124 <__cs3_heap_start_ptr>:
     124:	00014c60 	.word	0x00014c60

00000128 <_start>:
     128:	e51fd000 	ldr	sp, [pc, #-0]	; 130 <_start+0x8>
     12c:	eaffffc4 	b	44 <__cs3_start_c>
     130:	3ffffff8 	.word	0x3ffffff8

00000134 <deregister_tm_clones>:
     134:	e92d4008 	push	{r3, lr}
     138:	e59f002c 	ldr	r0, [pc, #44]	; 16c <deregister_tm_clones+0x38>
     13c:	e59f302c 	ldr	r3, [pc, #44]	; 170 <deregister_tm_clones+0x3c>
     140:	e0603003 	rsb	r3, r0, r3
     144:	e3530006 	cmp	r3, #6
     148:	8a000001 	bhi	154 <deregister_tm_clones+0x20>
     14c:	e8bd4008 	pop	{r3, lr}
     150:	e12fff1e 	bx	lr
     154:	e59f3018 	ldr	r3, [pc, #24]	; 174 <deregister_tm_clones+0x40>
     158:	e3530000 	cmp	r3, #0
     15c:	0afffffa 	beq	14c <deregister_tm_clones+0x18>
     160:	e1a0e00f 	mov	lr, pc
     164:	e12fff13 	bx	r3
     168:	eafffff7 	b	14c <deregister_tm_clones+0x18>
     16c:	00014a50 	.word	0x00014a50
     170:	00014a53 	.word	0x00014a53
     174:	00000000 	.word	0x00000000

00000178 <register_tm_clones>:
     178:	e92d4008 	push	{r3, lr}
     17c:	e59f0034 	ldr	r0, [pc, #52]	; 1b8 <register_tm_clones+0x40>
     180:	e59f3034 	ldr	r3, [pc, #52]	; 1bc <register_tm_clones+0x44>
     184:	e0603003 	rsb	r3, r0, r3
     188:	e1a03143 	asr	r3, r3, #2
     18c:	e0833fa3 	add	r3, r3, r3, lsr #31
     190:	e1b010c3 	asrs	r1, r3, #1
     194:	1a000001 	bne	1a0 <register_tm_clones+0x28>
     198:	e8bd4008 	pop	{r3, lr}
     19c:	e12fff1e 	bx	lr
     1a0:	e59f2018 	ldr	r2, [pc, #24]	; 1c0 <register_tm_clones+0x48>
     1a4:	e3520000 	cmp	r2, #0
     1a8:	0afffffa 	beq	198 <register_tm_clones+0x20>
     1ac:	e1a0e00f 	mov	lr, pc
     1b0:	e12fff12 	bx	r2
     1b4:	eafffff7 	b	198 <register_tm_clones+0x20>
     1b8:	00014a50 	.word	0x00014a50
     1bc:	00014a50 	.word	0x00014a50
     1c0:	00000000 	.word	0x00000000

000001c4 <__do_global_dtors_aux>:
     1c4:	e92d4010 	push	{r4, lr}
     1c8:	e59f402c 	ldr	r4, [pc, #44]	; 1fc <__do_global_dtors_aux+0x38>
     1cc:	e5d43000 	ldrb	r3, [r4]
     1d0:	e3530000 	cmp	r3, #0
     1d4:	1a000006 	bne	1f4 <__do_global_dtors_aux+0x30>
     1d8:	ebffffd5 	bl	134 <deregister_tm_clones>
     1dc:	e59f301c 	ldr	r3, [pc, #28]	; 200 <__do_global_dtors_aux+0x3c>
     1e0:	e3530000 	cmp	r3, #0
     1e4:	159f0018 	ldrne	r0, [pc, #24]	; 204 <__do_global_dtors_aux+0x40>
     1e8:	1320f000 	nopne	{0}
     1ec:	e3a03001 	mov	r3, #1
     1f0:	e5c43000 	strb	r3, [r4]
     1f4:	e8bd4010 	pop	{r4, lr}
     1f8:	e12fff1e 	bx	lr
     1fc:	00014a50 	.word	0x00014a50
     200:	00000000 	.word	0x00000000
     204:	00013c58 	.word	0x00013c58

00000208 <frame_dummy>:
     208:	e92d4008 	push	{r3, lr}
     20c:	e59f3034 	ldr	r3, [pc, #52]	; 248 <__cs3_region_zero_size_ram+0x38>
     210:	e3530000 	cmp	r3, #0
     214:	159f0030 	ldrne	r0, [pc, #48]	; 24c <__cs3_region_zero_size_ram+0x3c>
     218:	159f1030 	ldrne	r1, [pc, #48]	; 250 <__cs3_region_zero_size_ram+0x40>
     21c:	1320f000 	nopne	{0}
     220:	e59f002c 	ldr	r0, [pc, #44]	; 254 <__cs3_region_zero_size_ram+0x44>
     224:	e5903000 	ldr	r3, [r0]
     228:	e3530000 	cmp	r3, #0
     22c:	0a000003 	beq	240 <__cs3_region_zero_size_ram+0x30>
     230:	e59f3020 	ldr	r3, [pc, #32]	; 258 <__cs3_region_zero_size_ram+0x48>
     234:	e3530000 	cmp	r3, #0
     238:	11a0e00f 	movne	lr, pc
     23c:	112fff13 	bxne	r3
     240:	e8bd4008 	pop	{r3, lr}
     244:	eaffffcb 	b	178 <register_tm_clones>
     248:	00000000 	.word	0x00000000
     24c:	00013c58 	.word	0x00013c58
     250:	00014a54 	.word	0x00014a54
     254:	00014148 	.word	0x00014148
     258:	00000000 	.word	0x00000000

0000025c <euclids_sub>:

    return 0;
}

int euclids_sub(int a, int b)
{
     25c:	e92d4008 	push	{r3, lr}
     260:	e1a03000 	mov	r3, r0
    if (a == b) {
     264:	e1500001 	cmp	r0, r1
     268:	0a000004 	beq	280 <euclids_sub+0x24>
        return a;}
    if (a > b) {
        return euclids_sub((a-b), b);}
     26c:	c0610000 	rsbgt	r0, r1, r0
    else {
        return euclids_sub(a, (b-a));}
     270:	d1a00003 	movle	r0, r3
     274:	d0631001 	rsble	r1, r3, r1
     278:	ebfffff7 	bl	25c <euclids_sub>
     27c:	e1a03000 	mov	r3, r0
}
     280:	e1a00003 	mov	r0, r3
     284:	e8bd8008 	pop	{r3, pc}

00000288 <euclids_sub_64>:

long long euclids_sub_64(long long a, long long b)
{
     288:	e92d4038 	push	{r3, r4, r5, lr}
     28c:	e1a04000 	mov	r4, r0
     290:	e1a05001 	mov	r5, r1
    if (a == b) {
     294:	e1550003 	cmp	r5, r3
     298:	01540002 	cmpeq	r4, r2
     29c:	0a000008 	beq	2c4 <euclids_sub_64+0x3c>
        return a;}
    if (a > b) {
     2a0:	e1520004 	cmp	r2, r4
     2a4:	e0d31005 	sbcs	r1, r3, r5
        return euclids_sub((a-b), b);}
     2a8:	b0620000 	rsblt	r0, r2, r0
     2ac:	b1a01002 	movlt	r1, r2
    else {
        return euclids_sub(a, (b-a));}
     2b0:	a1a00004 	movge	r0, r4
     2b4:	a0641002 	rsbge	r1, r4, r2
     2b8:	ebffffe7 	bl	25c <euclids_sub>
     2bc:	e1a04000 	mov	r4, r0
     2c0:	e1a05fc0 	asr	r5, r0, #31
}
     2c4:	e1a00004 	mov	r0, r4
     2c8:	e1a01005 	mov	r1, r5
     2cc:	e8bd8038 	pop	{r3, r4, r5, pc}

000002d0 <euclids_mod>:

int euclids_mod(int a, int b)
{
     2d0:	e92d4010 	push	{r4, lr}
     2d4:	e1a04001 	mov	r4, r1
    int amb = a % b;
     2d8:	eb000105 	bl	6f4 <__aeabi_idivmod>
    if(amb == 0) {
     2dc:	e3510000 	cmp	r1, #0
     2e0:	0a000002 	beq	2f0 <euclids_mod+0x20>
        return b;}
    return euclids_mod(b, amb);
     2e4:	e1a00004 	mov	r0, r4
     2e8:	ebfffff8 	bl	2d0 <euclids_mod>
     2ec:	e1a04000 	mov	r4, r0
}
     2f0:	e1a00004 	mov	r0, r4
     2f4:	e8bd8010 	pop	{r4, pc}

000002f8 <euclids_mod_64>:

long long euclids_mod_64(long long a, long long b)
{
     2f8:	e92d4038 	push	{r3, r4, r5, lr}
     2fc:	e1a04002 	mov	r4, r2
     300:	e1a05003 	mov	r5, r3
    int amb = a % b;
     304:	eb000373 	bl	10d8 <__aeabi_ldivmod>
    if(amb == 0) {
     308:	e2521000 	subs	r1, r2, #0
     30c:	0a000003 	beq	320 <euclids_mod_64+0x28>
        return b;}
    return euclids_mod(b, amb);
     310:	e1a00004 	mov	r0, r4
     314:	ebffffed 	bl	2d0 <euclids_mod>
     318:	e1a04000 	mov	r4, r0
     31c:	e1a05fc0 	asr	r5, r0, #31
}
     320:	e1a00004 	mov	r0, r4
     324:	e1a01005 	mov	r1, r5
     328:	e8bd8038 	pop	{r3, r4, r5, pc}

0000032c <report>:

void report(long long gcd, clock_t total_time, unsigned int timer_total)
{
     32c:	e92d40f8 	push	{r3, r4, r5, r6, r7, lr}
     330:	e1a04000 	mov	r4, r0
     334:	e1a05001 	mov	r5, r1
     338:	e1a07002 	mov	r7, r2
     33c:	e1a06003 	mov	r6, r3
    printf("\nGCD : %lli", gcd);
     340:	e3030c68 	movw	r0, #15464	; 0x3c68
     344:	e3400001 	movt	r0, #1
     348:	e1a02004 	mov	r2, r4
     34c:	e1a03001 	mov	r3, r1
     350:	eb00067c 	bl	1d48 <printf>
    printf("\nClock Time: %E sec",     ((float)total_time)/CLOCKS_PER_SEC);
     354:	e1a00007 	mov	r0, r7
     358:	eb000267 	bl	cfc <__aeabi_ui2f>
     35c:	e3a01000 	mov	r1, #0
     360:	e34412c8 	movt	r1, #17096	; 0x42c8
     364:	eb000303 	bl	f78 <__aeabi_fdiv>
     368:	eb0001c4 	bl	a80 <__aeabi_f2d>
     36c:	e1a02000 	mov	r2, r0
     370:	e1a03001 	mov	r3, r1
     374:	e3030c74 	movw	r0, #15476	; 0x3c74
     378:	e3400001 	movt	r0, #1
     37c:	eb000671 	bl	1d48 <printf>
    printf("\nTimer Time: %E sec", ((float)timer_total)/TIMERCLOCKSPERSEC);
     380:	e1a00006 	mov	r0, r6
     384:	eb00025c 	bl	cfc <__aeabi_ui2f>
     388:	e30b1c20 	movw	r1, #48160	; 0xbc20
     38c:	e3441d3e 	movt	r1, #19774	; 0x4d3e
     390:	eb0002f8 	bl	f78 <__aeabi_fdiv>
     394:	eb0001b9 	bl	a80 <__aeabi_f2d>
     398:	e1a02000 	mov	r2, r0
     39c:	e1a03001 	mov	r3, r1
     3a0:	e3030c88 	movw	r0, #15496	; 0x3c88
     3a4:	e3400001 	movt	r0, #1
     3a8:	eb000666 	bl	1d48 <printf>
     3ac:	e8bd80f8 	pop	{r3, r4, r5, r6, r7, pc}

000003b0 <main>:
int euclids_mod(int a, int b);
long long euclids_sub_64(long long a, long long b);
long long euclids_mod_64(long long a, long long b);
void report(long long gcd, clock_t total_time, unsigned int timer_total);

int main(void) {
     3b0:	e92d4ff0 	push	{r4, r5, r6, r7, r8, r9, r10, r11, lr}
     3b4:	e24dd03c 	sub	sp, sp, #60	; 0x3c

    clock_t start_time, end_time, total_time = 0;
    unsigned int timer_start, timer_end, timer_total = 0;

    volatile int * MPcore_private_timer_ptr = (int *)MPCORE_PRIV_TIMER;
    *(MPcore_private_timer_ptr)   = 0x0;
     3b8:	e3e03a13 	mvn	r3, #77824	; 0x13000
     3bc:	e3a02000 	mov	r2, #0
     3c0:	e50329ff 	str	r2, [r3, #-2559]	; 0xfffff601
    *(MPcore_private_timer_ptr+2) = 0x0000;
     3c4:	e50329f7 	str	r2, [r3, #-2551]	; 0xfffff609

    while(1){
        // Got tired of inputting numbers, change #define at top
        if(USERINPUT) {
        printf("\nInput A: ");
     3c8:	e3038c9c 	movw	r8, #15516	; 0x3c9c
     3cc:	e3408001 	movt	r8, #1
        scanf(" %u",&a);
     3d0:	e3033ca8 	movw	r3, #15528	; 0x3ca8
     3d4:	e3403001 	movt	r3, #1
     3d8:	e58d3004 	str	r3, [sp, #4]
        printf("\nInput B: ");
     3dc:	e3033cac 	movw	r3, #15532	; 0x3cac
     3e0:	e3403001 	movt	r3, #1
     3e4:	e58d3008 	str	r3, [sp, #8]
        }
        else {
            a = 2147483647;
            b = 524287;
        }
        printf("\nA: %u", a);
     3e8:	e3033cb8 	movw	r3, #15544	; 0x3cb8
     3ec:	e3403001 	movt	r3, #1
     3f0:	e58d300c 	str	r3, [sp, #12]
        printf("\nB: %u", b);
     3f4:	e3033cc0 	movw	r3, #15552	; 0x3cc0
     3f8:	e3403001 	movt	r3, #1
     3fc:	e58d3010 	str	r3, [sp, #16]



        printf("\n\n-------- GCD_SUB --------");
     400:	e3033cc8 	movw	r3, #15560	; 0x3cc8
     404:	e3403001 	movt	r3, #1
     408:	e58d3014 	str	r3, [sp, #20]
    *(MPcore_private_timer_ptr+2) = 0x0000;

    while(1){
        // Got tired of inputting numbers, change #define at top
        if(USERINPUT) {
        printf("\nInput A: ");
     40c:	e1a00008 	mov	r0, r8
     410:	eb00064c 	bl	1d48 <printf>
        scanf(" %u",&a);
     414:	e59d0004 	ldr	r0, [sp, #4]
     418:	e28d1034 	add	r1, sp, #52	; 0x34
     41c:	eb000659 	bl	1d88 <scanf>
        printf("\nInput B: ");
     420:	e59d0008 	ldr	r0, [sp, #8]
     424:	eb000647 	bl	1d48 <printf>
        scanf(" %u",&b);
     428:	e59d0004 	ldr	r0, [sp, #4]
     42c:	e28d1030 	add	r1, sp, #48	; 0x30
     430:	eb000654 	bl	1d88 <scanf>
        }
        else {
            a = 2147483647;
            b = 524287;
        }
        printf("\nA: %u", a);
     434:	e59d000c 	ldr	r0, [sp, #12]
     438:	e59d1034 	ldr	r1, [sp, #52]	; 0x34
     43c:	eb000641 	bl	1d48 <printf>
        printf("\nB: %u", b);
     440:	e59d0010 	ldr	r0, [sp, #16]
     444:	e59d1030 	ldr	r1, [sp, #48]	; 0x30
     448:	eb00063e 	bl	1d48 <printf>



        printf("\n\n-------- GCD_SUB --------");
     44c:	e59d0014 	ldr	r0, [sp, #20]
     450:	eb00063c 	bl	1d48 <printf>
        // Test with clock() function
        start_time = clock();
     454:	eb00060e 	bl	1c94 <clock>
     458:	e1a09000 	mov	r9, r0
        gcd = euclids_sub(a, b);
     45c:	e59d0034 	ldr	r0, [sp, #52]	; 0x34
     460:	e59d1030 	ldr	r1, [sp, #48]	; 0x30
     464:	ebffff7c 	bl	25c <euclids_sub>
        end_time = clock();
     468:	eb000609 	bl	1c94 <clock>
     46c:	e1a0b000 	mov	r11, r0

        // Test using private arm timer
        *(MPcore_private_timer_ptr) = TIMERINIT; // Initialize timer
     470:	e3e04a13 	mvn	r4, #77824	; 0x13000
     474:	e3e07000 	mvn	r7, #0
     478:	e50479ff 	str	r7, [r4, #-2559]	; 0xfffff601
        *(MPcore_private_timer_ptr+2) = TIMERSTART; // Start timer
     47c:	e3a06011 	mov	r6, #17
     480:	e50469f7 	str	r6, [r4, #-2551]	; 0xfffff609
        timer_start = *(MPcore_private_timer_ptr+1); // Read current value
     484:	e514a9fb 	ldr	r10, [r4, #-2555]	; 0xfffff605
        gcd = euclids_sub(a, b);
     488:	e59d0034 	ldr	r0, [sp, #52]	; 0x34
     48c:	e59d1030 	ldr	r1, [sp, #48]	; 0x30
     490:	ebffff71 	bl	25c <euclids_sub>
        timer_end = *(MPcore_private_timer_ptr+1); // Read current value
     494:	e51439fb 	ldr	r3, [r4, #-2555]	; 0xfffff605
        *(MPcore_private_timer_ptr+2) = TIMERSTOP; // Stop timer
     498:	e3a05000 	mov	r5, #0
     49c:	e50459f7 	str	r5, [r4, #-2551]	; 0xfffff609
        // Calculate
        total_time = end_time - start_time;
        timer_total = timer_start - timer_end;

        // Report
        report((long long)gcd, total_time, timer_total);
     4a0:	e1a01fc0 	asr	r1, r0, #31
     4a4:	e069200b 	rsb	r2, r9, r11
     4a8:	e063300a 	rsb	r3, r3, r10
     4ac:	ebffff9e 	bl	32c <report>



        printf("\n\n-------- GCD_MOD --------");
     4b0:	e3030ce4 	movw	r0, #15588	; 0x3ce4
     4b4:	e3400001 	movt	r0, #1
     4b8:	eb000622 	bl	1d48 <printf>
        // Test with clock() function
        start_time = clock();
     4bc:	eb0005f4 	bl	1c94 <clock>
     4c0:	e1a09000 	mov	r9, r0
        gcd = euclids_mod(a, b);
     4c4:	e59d0034 	ldr	r0, [sp, #52]	; 0x34
     4c8:	e59d1030 	ldr	r1, [sp, #48]	; 0x30
     4cc:	ebffff7f 	bl	2d0 <euclids_mod>
        end_time = clock();
     4d0:	eb0005ef 	bl	1c94 <clock>
     4d4:	e1a0b000 	mov	r11, r0

        // Test using private arm timer
        *(MPcore_private_timer_ptr) = TIMERINIT; // Initialize timer
     4d8:	e50479ff 	str	r7, [r4, #-2559]	; 0xfffff601
        *(MPcore_private_timer_ptr+2) = TIMERSTART; // Start timer
     4dc:	e50469f7 	str	r6, [r4, #-2551]	; 0xfffff609
        timer_start = *(MPcore_private_timer_ptr+1); // Read current value
     4e0:	e514a9fb 	ldr	r10, [r4, #-2555]	; 0xfffff605
        gcd = euclids_mod(a, b);
     4e4:	e59d0034 	ldr	r0, [sp, #52]	; 0x34
     4e8:	e59d1030 	ldr	r1, [sp, #48]	; 0x30
     4ec:	ebffff77 	bl	2d0 <euclids_mod>
        timer_end = *(MPcore_private_timer_ptr+1); // Read current value
     4f0:	e51439fb 	ldr	r3, [r4, #-2555]	; 0xfffff605
        *(MPcore_private_timer_ptr+2) = TIMERSTOP; // Stop timer
     4f4:	e50459f7 	str	r5, [r4, #-2551]	; 0xfffff609
        // Calculate
        total_time = end_time - start_time;
        timer_total = timer_start - timer_end;

        // Report
        report((long long)gcd, total_time, timer_total);
     4f8:	e1a01fc0 	asr	r1, r0, #31
     4fc:	e069200b 	rsb	r2, r9, r11
     500:	e063300a 	rsb	r3, r3, r10
     504:	ebffff88 	bl	32c <report>


        // Got tired of inputting numbers, change #define at top
        if(USERINPUT) {
        printf("\nInput A: ");
     508:	e1a00008 	mov	r0, r8
     50c:	eb00060d 	bl	1d48 <printf>
        scanf(" %llu",&a_64);
     510:	e303ad04 	movw	r10, #15620	; 0x3d04
     514:	e340a001 	movt	r10, #1
     518:	e1a0000a 	mov	r0, r10
     51c:	e28d1028 	add	r1, sp, #40	; 0x28
     520:	eb000618 	bl	1d88 <scanf>
        printf("\nInput B: ");
     524:	e59d0008 	ldr	r0, [sp, #8]
     528:	eb000606 	bl	1d48 <printf>
        scanf(" %llu",&b_64);
     52c:	e1a0000a 	mov	r0, r10
     530:	e28d1020 	add	r1, sp, #32
     534:	eb000613 	bl	1d88 <scanf>
        }
        else {
            a_64 = 2305843009213693951;
            b_64 = 2147483647;
        }
        printf("\n\nA: %llu", a_64);
     538:	e3030d00 	movw	r0, #15616	; 0x3d00
     53c:	e3400001 	movt	r0, #1
     540:	e1cd22d8 	ldrd	r2, [sp, #40]	; 0x28
     544:	eb0005ff 	bl	1d48 <printf>
        printf("\nB: %llu", b_64);
     548:	e3030d0c 	movw	r0, #15628	; 0x3d0c
     54c:	e3400001 	movt	r0, #1
     550:	e1cd22d0 	ldrd	r2, [sp, #32]
     554:	eb0005fb 	bl	1d48 <printf>
        // // Report
        // report(gcd_64, total_time, timer_total);



        printf("\n\n-------- GCD_MOD_64 --------");
     558:	e3030d18 	movw	r0, #15640	; 0x3d18
     55c:	e3400001 	movt	r0, #1
     560:	eb0005f8 	bl	1d48 <printf>
        // Test with clock() function
        start_time = clock();
     564:	eb0005ca 	bl	1c94 <clock>
     568:	e1a0a000 	mov	r10, r0
        gcd_64 = euclids_mod_64(a_64, b_64);
     56c:	e1cd02d8 	ldrd	r0, [sp, #40]	; 0x28
     570:	e1cd22d0 	ldrd	r2, [sp, #32]
     574:	ebffff5f 	bl	2f8 <euclids_mod_64>
        end_time = clock();
     578:	eb0005c5 	bl	1c94 <clock>
     57c:	e1a09000 	mov	r9, r0

        // Test using private arm timer
        *(MPcore_private_timer_ptr) = TIMERINIT; // Initialize timer
     580:	e50479ff 	str	r7, [r4, #-2559]	; 0xfffff601
        *(MPcore_private_timer_ptr+2) = TIMERSTART; // Start timer
     584:	e50469f7 	str	r6, [r4, #-2551]	; 0xfffff609
        timer_start = *(MPcore_private_timer_ptr+1); // Read current value
     588:	e51469fb 	ldr	r6, [r4, #-2555]	; 0xfffff605
        gcd_64 = euclids_mod_64(a_64, b_64);
     58c:	e1cd02d8 	ldrd	r0, [sp, #40]	; 0x28
     590:	e1cd22d0 	ldrd	r2, [sp, #32]
     594:	ebffff57 	bl	2f8 <euclids_mod_64>
        timer_end = *(MPcore_private_timer_ptr+1); // Read current value
     598:	e51439fb 	ldr	r3, [r4, #-2555]	; 0xfffff605
        *(MPcore_private_timer_ptr+2) = TIMERSTOP; // Stop timer
     59c:	e50459f7 	str	r5, [r4, #-2551]	; 0xfffff609
        // Calculate
        total_time = end_time - start_time;
        timer_total = timer_start - timer_end;

        // Report
        report(gcd_64, total_time, timer_total);
     5a0:	e06a2009 	rsb	r2, r10, r9
     5a4:	e0633006 	rsb	r3, r3, r6
     5a8:	ebffff5f 	bl	32c <report>

        char ch;
        printf("\n\nPress ENTER to continue.");
     5ac:	e3030d38 	movw	r0, #15672	; 0x3d38
     5b0:	e3400001 	movt	r0, #1
     5b4:	eb0005e3 	bl	1d48 <printf>
        scanf("%c",&ch);
     5b8:	e3030d54 	movw	r0, #15700	; 0x3d54
     5bc:	e3400001 	movt	r0, #1
     5c0:	e28d101f 	add	r1, sp, #31
     5c4:	eb0005ef 	bl	1d88 <scanf>
     5c8:	eaffff8f 	b	40c <main+0x5c>

000005cc <__aeabi_idiv>:
     5cc:	e3510000 	cmp	r1, #0
     5d0:	0a000043 	beq	6e4 <.divsi3_skip_div0_test+0x110>

000005d4 <.divsi3_skip_div0_test>:
     5d4:	e020c001 	eor	r12, r0, r1
     5d8:	42611000 	rsbmi	r1, r1, #0
     5dc:	e2512001 	subs	r2, r1, #1
     5e0:	0a000027 	beq	684 <.divsi3_skip_div0_test+0xb0>
     5e4:	e1b03000 	movs	r3, r0
     5e8:	42603000 	rsbmi	r3, r0, #0
     5ec:	e1530001 	cmp	r3, r1
     5f0:	9a000026 	bls	690 <.divsi3_skip_div0_test+0xbc>
     5f4:	e1110002 	tst	r1, r2
     5f8:	0a000028 	beq	6a0 <.divsi3_skip_div0_test+0xcc>
     5fc:	e311020e 	tst	r1, #-536870912	; 0xe0000000
     600:	01a01181 	lsleq	r1, r1, #3
     604:	03a02008 	moveq	r2, #8
     608:	13a02001 	movne	r2, #1
     60c:	e3510201 	cmp	r1, #268435456	; 0x10000000
     610:	31510003 	cmpcc	r1, r3
     614:	31a01201 	lslcc	r1, r1, #4
     618:	31a02202 	lslcc	r2, r2, #4
     61c:	3afffffa 	bcc	60c <.divsi3_skip_div0_test+0x38>
     620:	e3510102 	cmp	r1, #-2147483648	; 0x80000000
     624:	31510003 	cmpcc	r1, r3
     628:	31a01081 	lslcc	r1, r1, #1
     62c:	31a02082 	lslcc	r2, r2, #1
     630:	3afffffa 	bcc	620 <.divsi3_skip_div0_test+0x4c>
     634:	e3a00000 	mov	r0, #0
     638:	e1530001 	cmp	r3, r1
     63c:	20433001 	subcs	r3, r3, r1
     640:	21800002 	orrcs	r0, r0, r2
     644:	e15300a1 	cmp	r3, r1, lsr #1
     648:	204330a1 	subcs	r3, r3, r1, lsr #1
     64c:	218000a2 	orrcs	r0, r0, r2, lsr #1
     650:	e1530121 	cmp	r3, r1, lsr #2
     654:	20433121 	subcs	r3, r3, r1, lsr #2
     658:	21800122 	orrcs	r0, r0, r2, lsr #2
     65c:	e15301a1 	cmp	r3, r1, lsr #3
     660:	204331a1 	subcs	r3, r3, r1, lsr #3
     664:	218001a2 	orrcs	r0, r0, r2, lsr #3
     668:	e3530000 	cmp	r3, #0
     66c:	11b02222 	lsrsne	r2, r2, #4
     670:	11a01221 	lsrne	r1, r1, #4
     674:	1affffef 	bne	638 <.divsi3_skip_div0_test+0x64>
     678:	e35c0000 	cmp	r12, #0
     67c:	42600000 	rsbmi	r0, r0, #0
     680:	e12fff1e 	bx	lr
     684:	e13c0000 	teq	r12, r0
     688:	42600000 	rsbmi	r0, r0, #0
     68c:	e12fff1e 	bx	lr
     690:	33a00000 	movcc	r0, #0
     694:	01a00fcc 	asreq	r0, r12, #31
     698:	03800001 	orreq	r0, r0, #1
     69c:	e12fff1e 	bx	lr
     6a0:	e3510801 	cmp	r1, #65536	; 0x10000
     6a4:	21a01821 	lsrcs	r1, r1, #16
     6a8:	23a02010 	movcs	r2, #16
     6ac:	33a02000 	movcc	r2, #0
     6b0:	e3510c01 	cmp	r1, #256	; 0x100
     6b4:	21a01421 	lsrcs	r1, r1, #8
     6b8:	22822008 	addcs	r2, r2, #8
     6bc:	e3510010 	cmp	r1, #16
     6c0:	21a01221 	lsrcs	r1, r1, #4
     6c4:	22822004 	addcs	r2, r2, #4
     6c8:	e3510004 	cmp	r1, #4
     6cc:	82822003 	addhi	r2, r2, #3
     6d0:	908220a1 	addls	r2, r2, r1, lsr #1
     6d4:	e35c0000 	cmp	r12, #0
     6d8:	e1a00233 	lsr	r0, r3, r2
     6dc:	42600000 	rsbmi	r0, r0, #0
     6e0:	e12fff1e 	bx	lr
     6e4:	e3500000 	cmp	r0, #0
     6e8:	c3e00102 	mvngt	r0, #-2147483648	; 0x80000000
     6ec:	b3a00102 	movlt	r0, #-2147483648	; 0x80000000
     6f0:	ea000007 	b	714 <__aeabi_idiv0>

000006f4 <__aeabi_idivmod>:
     6f4:	e3510000 	cmp	r1, #0
     6f8:	0afffff9 	beq	6e4 <.divsi3_skip_div0_test+0x110>
     6fc:	e92d4003 	push	{r0, r1, lr}
     700:	ebffffb3 	bl	5d4 <.divsi3_skip_div0_test>
     704:	e8bd4006 	pop	{r1, r2, lr}
     708:	e0030092 	mul	r3, r2, r0
     70c:	e0411003 	sub	r1, r1, r3
     710:	e12fff1e 	bx	lr

00000714 <__aeabi_idiv0>:
     714:	e12fff1e 	bx	lr

00000718 <__aeabi_drsub>:
     718:	e2211102 	eor	r1, r1, #-2147483648	; 0x80000000
     71c:	ea000000 	b	724 <__adddf3>

00000720 <__aeabi_dsub>:
     720:	e2233102 	eor	r3, r3, #-2147483648	; 0x80000000

00000724 <__adddf3>:
     724:	e92d4030 	push	{r4, r5, lr}
     728:	e1a04081 	lsl	r4, r1, #1
     72c:	e1a05083 	lsl	r5, r3, #1
     730:	e1340005 	teq	r4, r5
     734:	01300002 	teqeq	r0, r2
     738:	1194c000 	orrsne	r12, r4, r0
     73c:	1195c002 	orrsne	r12, r5, r2
     740:	11f0cac4 	mvnsne	r12, r4, asr #21
     744:	11f0cac5 	mvnsne	r12, r5, asr #21
     748:	0a00008c 	beq	980 <__adddf3+0x25c>
     74c:	e1a04aa4 	lsr	r4, r4, #21
     750:	e0745aa5 	rsbs	r5, r4, r5, lsr #21
     754:	b2655000 	rsblt	r5, r5, #0
     758:	da000006 	ble	778 <__adddf3+0x54>
     75c:	e0844005 	add	r4, r4, r5
     760:	e0202002 	eor	r2, r0, r2
     764:	e0213003 	eor	r3, r1, r3
     768:	e0220000 	eor	r0, r2, r0
     76c:	e0231001 	eor	r1, r3, r1
     770:	e0202002 	eor	r2, r0, r2
     774:	e0213003 	eor	r3, r1, r3
     778:	e3550036 	cmp	r5, #54	; 0x36
     77c:	88bd4030 	pophi	{r4, r5, lr}
     780:	812fff1e 	bxhi	lr
     784:	e3110102 	tst	r1, #-2147483648	; 0x80000000
     788:	e1a01601 	lsl	r1, r1, #12
     78c:	e3a0c601 	mov	r12, #1048576	; 0x100000
     790:	e18c1621 	orr	r1, r12, r1, lsr #12
     794:	0a000001 	beq	7a0 <__adddf3+0x7c>
     798:	e2700000 	rsbs	r0, r0, #0
     79c:	e2e11000 	rsc	r1, r1, #0
     7a0:	e3130102 	tst	r3, #-2147483648	; 0x80000000
     7a4:	e1a03603 	lsl	r3, r3, #12
     7a8:	e18c3623 	orr	r3, r12, r3, lsr #12
     7ac:	0a000001 	beq	7b8 <__adddf3+0x94>
     7b0:	e2722000 	rsbs	r2, r2, #0
     7b4:	e2e33000 	rsc	r3, r3, #0
     7b8:	e1340005 	teq	r4, r5
     7bc:	0a000069 	beq	968 <__adddf3+0x244>
     7c0:	e2444001 	sub	r4, r4, #1
     7c4:	e275e020 	rsbs	lr, r5, #32
     7c8:	ba000005 	blt	7e4 <__adddf3+0xc0>
     7cc:	e1a0ce12 	lsl	r12, r2, lr
     7d0:	e0900532 	adds	r0, r0, r2, lsr r5
     7d4:	e2a11000 	adc	r1, r1, #0
     7d8:	e0900e13 	adds	r0, r0, r3, lsl lr
     7dc:	e0b11553 	adcs	r1, r1, r3, asr r5
     7e0:	ea000006 	b	800 <__adddf3+0xdc>
     7e4:	e2455020 	sub	r5, r5, #32
     7e8:	e28ee020 	add	lr, lr, #32
     7ec:	e3520001 	cmp	r2, #1
     7f0:	e1a0ce13 	lsl	r12, r3, lr
     7f4:	238cc002 	orrcs	r12, r12, #2
     7f8:	e0900553 	adds	r0, r0, r3, asr r5
     7fc:	e0b11fc3 	adcs	r1, r1, r3, asr #31
     800:	e2015102 	and	r5, r1, #-2147483648	; 0x80000000
     804:	5a000002 	bpl	814 <__adddf3+0xf0>
     808:	e27cc000 	rsbs	r12, r12, #0
     80c:	e2f00000 	rscs	r0, r0, #0
     810:	e2e11000 	rsc	r1, r1, #0
     814:	e3510601 	cmp	r1, #1048576	; 0x100000
     818:	3a00000f 	bcc	85c <__adddf3+0x138>
     81c:	e3510602 	cmp	r1, #2097152	; 0x200000
     820:	3a000006 	bcc	840 <__adddf3+0x11c>
     824:	e1b010a1 	lsrs	r1, r1, #1
     828:	e1b00060 	rrxs	r0, r0
     82c:	e1a0c06c 	rrx	r12, r12
     830:	e2844001 	add	r4, r4, #1
     834:	e1a02a84 	lsl	r2, r4, #21
     838:	e3720501 	cmn	r2, #4194304	; 0x400000
     83c:	2a00006b 	bcs	9f0 <__adddf3+0x2cc>
     840:	e35c0102 	cmp	r12, #-2147483648	; 0x80000000
     844:	01b0c0a0 	lsrseq	r12, r0, #1
     848:	e2b00000 	adcs	r0, r0, #0
     84c:	e0a11a04 	adc	r1, r1, r4, lsl #20
     850:	e1811005 	orr	r1, r1, r5
     854:	e8bd4030 	pop	{r4, r5, lr}
     858:	e12fff1e 	bx	lr
     85c:	e1b0c08c 	lsls	r12, r12, #1
     860:	e0b00000 	adcs	r0, r0, r0
     864:	e0a11001 	adc	r1, r1, r1
     868:	e3110601 	tst	r1, #1048576	; 0x100000
     86c:	e2444001 	sub	r4, r4, #1
     870:	1afffff2 	bne	840 <__adddf3+0x11c>
     874:	e3310000 	teq	r1, #0
     878:	13a03014 	movne	r3, #20
     87c:	03a03034 	moveq	r3, #52	; 0x34
     880:	01a01000 	moveq	r1, r0
     884:	03a00000 	moveq	r0, #0
     888:	e1a02001 	mov	r2, r1
     88c:	e3520801 	cmp	r2, #65536	; 0x10000
     890:	21a02822 	lsrcs	r2, r2, #16
     894:	22433010 	subcs	r3, r3, #16
     898:	e3520c01 	cmp	r2, #256	; 0x100
     89c:	21a02422 	lsrcs	r2, r2, #8
     8a0:	22433008 	subcs	r3, r3, #8
     8a4:	e3520010 	cmp	r2, #16
     8a8:	21a02222 	lsrcs	r2, r2, #4
     8ac:	22433004 	subcs	r3, r3, #4
     8b0:	e3520004 	cmp	r2, #4
     8b4:	22433002 	subcs	r3, r3, #2
     8b8:	304330a2 	subcc	r3, r3, r2, lsr #1
     8bc:	e04331a2 	sub	r3, r3, r2, lsr #3
     8c0:	e2532020 	subs	r2, r3, #32
     8c4:	aa000007 	bge	8e8 <__adddf3+0x1c4>
     8c8:	e292200c 	adds	r2, r2, #12
     8cc:	da000004 	ble	8e4 <__adddf3+0x1c0>
     8d0:	e282c014 	add	r12, r2, #20
     8d4:	e262200c 	rsb	r2, r2, #12
     8d8:	e1a00c11 	lsl	r0, r1, r12
     8dc:	e1a01231 	lsr	r1, r1, r2
     8e0:	ea000004 	b	8f8 <__adddf3+0x1d4>
     8e4:	e2822014 	add	r2, r2, #20
     8e8:	d262c020 	rsble	r12, r2, #32
     8ec:	e1a01211 	lsl	r1, r1, r2
     8f0:	d1811c30 	orrle	r1, r1, r0, lsr r12
     8f4:	d1a00210 	lslle	r0, r0, r2
     8f8:	e0544003 	subs	r4, r4, r3
     8fc:	a0811a04 	addge	r1, r1, r4, lsl #20
     900:	a1811005 	orrge	r1, r1, r5
     904:	a8bd4030 	popge	{r4, r5, lr}
     908:	a12fff1e 	bxge	lr
     90c:	e1e04004 	mvn	r4, r4
     910:	e254401f 	subs	r4, r4, #31
     914:	aa00000f 	bge	958 <__adddf3+0x234>
     918:	e294400c 	adds	r4, r4, #12
     91c:	ca000006 	bgt	93c <__adddf3+0x218>
     920:	e2844014 	add	r4, r4, #20
     924:	e2642020 	rsb	r2, r4, #32
     928:	e1a00430 	lsr	r0, r0, r4
     92c:	e1800211 	orr	r0, r0, r1, lsl r2
     930:	e1851431 	orr	r1, r5, r1, lsr r4
     934:	e8bd4030 	pop	{r4, r5, lr}
     938:	e12fff1e 	bx	lr
     93c:	e264400c 	rsb	r4, r4, #12
     940:	e2642020 	rsb	r2, r4, #32
     944:	e1a00230 	lsr	r0, r0, r2
     948:	e1800411 	orr	r0, r0, r1, lsl r4
     94c:	e1a01005 	mov	r1, r5
     950:	e8bd4030 	pop	{r4, r5, lr}
     954:	e12fff1e 	bx	lr
     958:	e1a00431 	lsr	r0, r1, r4
     95c:	e1a01005 	mov	r1, r5
     960:	e8bd4030 	pop	{r4, r5, lr}
     964:	e12fff1e 	bx	lr
     968:	e3340000 	teq	r4, #0
     96c:	e2233601 	eor	r3, r3, #1048576	; 0x100000
     970:	02211601 	eoreq	r1, r1, #1048576	; 0x100000
     974:	02844001 	addeq	r4, r4, #1
     978:	12455001 	subne	r5, r5, #1
     97c:	eaffff8f 	b	7c0 <__adddf3+0x9c>
     980:	e1f0cac4 	mvns	r12, r4, asr #21
     984:	11f0cac5 	mvnsne	r12, r5, asr #21
     988:	0a00001d 	beq	a04 <__adddf3+0x2e0>
     98c:	e1340005 	teq	r4, r5
     990:	01300002 	teqeq	r0, r2
     994:	0a000004 	beq	9ac <__adddf3+0x288>
     998:	e194c000 	orrs	r12, r4, r0
     99c:	01a01003 	moveq	r1, r3
     9a0:	01a00002 	moveq	r0, r2
     9a4:	e8bd4030 	pop	{r4, r5, lr}
     9a8:	e12fff1e 	bx	lr
     9ac:	e1310003 	teq	r1, r3
     9b0:	13a01000 	movne	r1, #0
     9b4:	13a00000 	movne	r0, #0
     9b8:	18bd4030 	popne	{r4, r5, lr}
     9bc:	112fff1e 	bxne	lr
     9c0:	e1b0caa4 	lsrs	r12, r4, #21
     9c4:	1a000004 	bne	9dc <__adddf3+0x2b8>
     9c8:	e1b00080 	lsls	r0, r0, #1
     9cc:	e0b11001 	adcs	r1, r1, r1
     9d0:	23811102 	orrcs	r1, r1, #-2147483648	; 0x80000000
     9d4:	e8bd4030 	pop	{r4, r5, lr}
     9d8:	e12fff1e 	bx	lr
     9dc:	e2944501 	adds	r4, r4, #4194304	; 0x400000
     9e0:	32811601 	addcc	r1, r1, #1048576	; 0x100000
     9e4:	38bd4030 	popcc	{r4, r5, lr}
     9e8:	312fff1e 	bxcc	lr
     9ec:	e2015102 	and	r5, r1, #-2147483648	; 0x80000000
     9f0:	e385147f 	orr	r1, r5, #2130706432	; 0x7f000000
     9f4:	e381160f 	orr	r1, r1, #15728640	; 0xf00000
     9f8:	e3a00000 	mov	r0, #0
     9fc:	e8bd4030 	pop	{r4, r5, lr}
     a00:	e12fff1e 	bx	lr
     a04:	e1f0cac4 	mvns	r12, r4, asr #21
     a08:	11a01003 	movne	r1, r3
     a0c:	11a00002 	movne	r0, r2
     a10:	01f0cac5 	mvnseq	r12, r5, asr #21
     a14:	11a03001 	movne	r3, r1
     a18:	11a02000 	movne	r2, r0
     a1c:	e1904601 	orrs	r4, r0, r1, lsl #12
     a20:	01925603 	orrseq	r5, r2, r3, lsl #12
     a24:	01310003 	teqeq	r1, r3
     a28:	13811702 	orrne	r1, r1, #524288	; 0x80000
     a2c:	e8bd4030 	pop	{r4, r5, lr}
     a30:	e12fff1e 	bx	lr

00000a34 <__aeabi_ui2d>:
     a34:	e3300000 	teq	r0, #0
     a38:	03a01000 	moveq	r1, #0
     a3c:	012fff1e 	bxeq	lr
     a40:	e92d4030 	push	{r4, r5, lr}
     a44:	e3a04b01 	mov	r4, #1024	; 0x400
     a48:	e2844032 	add	r4, r4, #50	; 0x32
     a4c:	e3a05000 	mov	r5, #0
     a50:	e3a01000 	mov	r1, #0
     a54:	eaffff86 	b	874 <__adddf3+0x150>

00000a58 <__aeabi_i2d>:
     a58:	e3300000 	teq	r0, #0
     a5c:	03a01000 	moveq	r1, #0
     a60:	012fff1e 	bxeq	lr
     a64:	e92d4030 	push	{r4, r5, lr}
     a68:	e3a04b01 	mov	r4, #1024	; 0x400
     a6c:	e2844032 	add	r4, r4, #50	; 0x32
     a70:	e2105102 	ands	r5, r0, #-2147483648	; 0x80000000
     a74:	42600000 	rsbmi	r0, r0, #0
     a78:	e3a01000 	mov	r1, #0
     a7c:	eaffff7c 	b	874 <__adddf3+0x150>

00000a80 <__aeabi_f2d>:
     a80:	e1b02080 	lsls	r2, r0, #1
     a84:	e1a011c2 	asr	r1, r2, #3
     a88:	e1a01061 	rrx	r1, r1
     a8c:	e1a00e02 	lsl	r0, r2, #28
     a90:	121234ff 	andsne	r3, r2, #-16777216	; 0xff000000
     a94:	133304ff 	teqne	r3, #-16777216	; 0xff000000
     a98:	1221130e 	eorne	r1, r1, #939524096	; 0x38000000
     a9c:	112fff1e 	bxne	lr
     aa0:	e3320000 	teq	r2, #0
     aa4:	133304ff 	teqne	r3, #-16777216	; 0xff000000
     aa8:	012fff1e 	bxeq	lr
     aac:	e92d4030 	push	{r4, r5, lr}
     ab0:	e3a04d0e 	mov	r4, #896	; 0x380
     ab4:	e2015102 	and	r5, r1, #-2147483648	; 0x80000000
     ab8:	e3c11102 	bic	r1, r1, #-2147483648	; 0x80000000
     abc:	eaffff6c 	b	874 <__adddf3+0x150>

00000ac0 <__aeabi_ul2d>:
     ac0:	e1902001 	orrs	r2, r0, r1
     ac4:	012fff1e 	bxeq	lr
     ac8:	e92d4030 	push	{r4, r5, lr}
     acc:	e3a05000 	mov	r5, #0
     ad0:	ea000006 	b	af0 <__aeabi_l2d+0x1c>

00000ad4 <__aeabi_l2d>:
     ad4:	e1902001 	orrs	r2, r0, r1
     ad8:	012fff1e 	bxeq	lr
     adc:	e92d4030 	push	{r4, r5, lr}
     ae0:	e2115102 	ands	r5, r1, #-2147483648	; 0x80000000
     ae4:	5a000001 	bpl	af0 <__aeabi_l2d+0x1c>
     ae8:	e2700000 	rsbs	r0, r0, #0
     aec:	e2e11000 	rsc	r1, r1, #0
     af0:	e3a04b01 	mov	r4, #1024	; 0x400
     af4:	e2844032 	add	r4, r4, #50	; 0x32
     af8:	e1b0cb21 	lsrs	r12, r1, #22
     afc:	0affff44 	beq	814 <__adddf3+0xf0>
     b00:	e3a02003 	mov	r2, #3
     b04:	e1b0c1ac 	lsrs	r12, r12, #3
     b08:	12822003 	addne	r2, r2, #3
     b0c:	e1b0c1ac 	lsrs	r12, r12, #3
     b10:	12822003 	addne	r2, r2, #3
     b14:	e08221ac 	add	r2, r2, r12, lsr #3
     b18:	e2623020 	rsb	r3, r2, #32
     b1c:	e1a0c310 	lsl	r12, r0, r3
     b20:	e1a00230 	lsr	r0, r0, r2
     b24:	e1800311 	orr	r0, r0, r1, lsl r3
     b28:	e1a01231 	lsr	r1, r1, r2
     b2c:	e0844002 	add	r4, r4, r2
     b30:	eaffff37 	b	814 <__adddf3+0xf0>

00000b34 <__aeabi_frsub>:
     b34:	e2200102 	eor	r0, r0, #-2147483648	; 0x80000000
     b38:	ea000000 	b	b40 <__addsf3>

00000b3c <__aeabi_fsub>:
     b3c:	e2211102 	eor	r1, r1, #-2147483648	; 0x80000000

00000b40 <__addsf3>:
     b40:	e1b02080 	lsls	r2, r0, #1
     b44:	11b03081 	lslsne	r3, r1, #1
     b48:	11320003 	teqne	r2, r3
     b4c:	11f0cc42 	mvnsne	r12, r2, asr #24
     b50:	11f0cc43 	mvnsne	r12, r3, asr #24
     b54:	0a000047 	beq	c78 <__addsf3+0x138>
     b58:	e1a02c22 	lsr	r2, r2, #24
     b5c:	e0723c23 	rsbs	r3, r2, r3, lsr #24
     b60:	c0822003 	addgt	r2, r2, r3
     b64:	c0201001 	eorgt	r1, r0, r1
     b68:	c0210000 	eorgt	r0, r1, r0
     b6c:	c0201001 	eorgt	r1, r0, r1
     b70:	b2633000 	rsblt	r3, r3, #0
     b74:	e3530019 	cmp	r3, #25
     b78:	812fff1e 	bxhi	lr
     b7c:	e3100102 	tst	r0, #-2147483648	; 0x80000000
     b80:	e3800502 	orr	r0, r0, #8388608	; 0x800000
     b84:	e3c004ff 	bic	r0, r0, #-16777216	; 0xff000000
     b88:	12600000 	rsbne	r0, r0, #0
     b8c:	e3110102 	tst	r1, #-2147483648	; 0x80000000
     b90:	e3811502 	orr	r1, r1, #8388608	; 0x800000
     b94:	e3c114ff 	bic	r1, r1, #-16777216	; 0xff000000
     b98:	12611000 	rsbne	r1, r1, #0
     b9c:	e1320003 	teq	r2, r3
     ba0:	0a00002e 	beq	c60 <__addsf3+0x120>
     ba4:	e2422001 	sub	r2, r2, #1
     ba8:	e0900351 	adds	r0, r0, r1, asr r3
     bac:	e2633020 	rsb	r3, r3, #32
     bb0:	e1a01311 	lsl	r1, r1, r3
     bb4:	e2003102 	and	r3, r0, #-2147483648	; 0x80000000
     bb8:	5a000001 	bpl	bc4 <__addsf3+0x84>
     bbc:	e2711000 	rsbs	r1, r1, #0
     bc0:	e2e00000 	rsc	r0, r0, #0
     bc4:	e3500502 	cmp	r0, #8388608	; 0x800000
     bc8:	3a00000b 	bcc	bfc <__addsf3+0xbc>
     bcc:	e3500401 	cmp	r0, #16777216	; 0x1000000
     bd0:	3a000004 	bcc	be8 <__addsf3+0xa8>
     bd4:	e1b000a0 	lsrs	r0, r0, #1
     bd8:	e1a01061 	rrx	r1, r1
     bdc:	e2822001 	add	r2, r2, #1
     be0:	e35200fe 	cmp	r2, #254	; 0xfe
     be4:	2a000038 	bcs	ccc <__addsf3+0x18c>
     be8:	e3510102 	cmp	r1, #-2147483648	; 0x80000000
     bec:	e0a00b82 	adc	r0, r0, r2, lsl #23
     bf0:	03c00001 	biceq	r0, r0, #1
     bf4:	e1800003 	orr	r0, r0, r3
     bf8:	e12fff1e 	bx	lr
     bfc:	e1b01081 	lsls	r1, r1, #1
     c00:	e0a00000 	adc	r0, r0, r0
     c04:	e3100502 	tst	r0, #8388608	; 0x800000
     c08:	e2422001 	sub	r2, r2, #1
     c0c:	1afffff5 	bne	be8 <__addsf3+0xa8>
     c10:	e1b0c620 	lsrs	r12, r0, #12
     c14:	01a00600 	lsleq	r0, r0, #12
     c18:	0242200c 	subeq	r2, r2, #12
     c1c:	e31008ff 	tst	r0, #16711680	; 0xff0000
     c20:	01a00400 	lsleq	r0, r0, #8
     c24:	02422008 	subeq	r2, r2, #8
     c28:	e310060f 	tst	r0, #15728640	; 0xf00000
     c2c:	01a00200 	lsleq	r0, r0, #4
     c30:	02422004 	subeq	r2, r2, #4
     c34:	e3100503 	tst	r0, #12582912	; 0xc00000
     c38:	01a00100 	lsleq	r0, r0, #2
     c3c:	02422002 	subeq	r2, r2, #2
     c40:	e3500502 	cmp	r0, #8388608	; 0x800000
     c44:	31a00080 	lslcc	r0, r0, #1
     c48:	e2d22000 	sbcs	r2, r2, #0
     c4c:	a0800b82 	addge	r0, r0, r2, lsl #23
     c50:	b2622000 	rsblt	r2, r2, #0
     c54:	a1800003 	orrge	r0, r0, r3
     c58:	b1830230 	orrlt	r0, r3, r0, lsr r2
     c5c:	e12fff1e 	bx	lr
     c60:	e3320000 	teq	r2, #0
     c64:	e2211502 	eor	r1, r1, #8388608	; 0x800000
     c68:	02200502 	eoreq	r0, r0, #8388608	; 0x800000
     c6c:	02822001 	addeq	r2, r2, #1
     c70:	12433001 	subne	r3, r3, #1
     c74:	eaffffca 	b	ba4 <__addsf3+0x64>
     c78:	e1a03081 	lsl	r3, r1, #1
     c7c:	e1f0cc42 	mvns	r12, r2, asr #24
     c80:	11f0cc43 	mvnsne	r12, r3, asr #24
     c84:	0a000013 	beq	cd8 <__addsf3+0x198>
     c88:	e1320003 	teq	r2, r3
     c8c:	0a000002 	beq	c9c <__addsf3+0x15c>
     c90:	e3320000 	teq	r2, #0
     c94:	01a00001 	moveq	r0, r1
     c98:	e12fff1e 	bx	lr
     c9c:	e1300001 	teq	r0, r1
     ca0:	13a00000 	movne	r0, #0
     ca4:	112fff1e 	bxne	lr
     ca8:	e31204ff 	tst	r2, #-16777216	; 0xff000000
     cac:	1a000002 	bne	cbc <__addsf3+0x17c>
     cb0:	e1b00080 	lsls	r0, r0, #1
     cb4:	23800102 	orrcs	r0, r0, #-2147483648	; 0x80000000
     cb8:	e12fff1e 	bx	lr
     cbc:	e2922402 	adds	r2, r2, #33554432	; 0x2000000
     cc0:	32800502 	addcc	r0, r0, #8388608	; 0x800000
     cc4:	312fff1e 	bxcc	lr
     cc8:	e2003102 	and	r3, r0, #-2147483648	; 0x80000000
     ccc:	e383047f 	orr	r0, r3, #2130706432	; 0x7f000000
     cd0:	e3800502 	orr	r0, r0, #8388608	; 0x800000
     cd4:	e12fff1e 	bx	lr
     cd8:	e1f02c42 	mvns	r2, r2, asr #24
     cdc:	11a00001 	movne	r0, r1
     ce0:	01f03c43 	mvnseq	r3, r3, asr #24
     ce4:	11a01000 	movne	r1, r0
     ce8:	e1b02480 	lsls	r2, r0, #9
     cec:	01b03481 	lslseq	r3, r1, #9
     cf0:	01300001 	teqeq	r0, r1
     cf4:	13800501 	orrne	r0, r0, #4194304	; 0x400000
     cf8:	e12fff1e 	bx	lr

00000cfc <__aeabi_ui2f>:
     cfc:	e3a03000 	mov	r3, #0
     d00:	ea000001 	b	d0c <__aeabi_i2f+0x8>

00000d04 <__aeabi_i2f>:
     d04:	e2103102 	ands	r3, r0, #-2147483648	; 0x80000000
     d08:	42600000 	rsbmi	r0, r0, #0
     d0c:	e1b0c000 	movs	r12, r0
     d10:	012fff1e 	bxeq	lr
     d14:	e383344b 	orr	r3, r3, #1258291200	; 0x4b000000
     d18:	e1a01000 	mov	r1, r0
     d1c:	e3a00000 	mov	r0, #0
     d20:	ea00000f 	b	d64 <__aeabi_l2f+0x30>

00000d24 <__aeabi_ul2f>:
     d24:	e1902001 	orrs	r2, r0, r1
     d28:	012fff1e 	bxeq	lr
     d2c:	e3a03000 	mov	r3, #0
     d30:	ea000005 	b	d4c <__aeabi_l2f+0x18>

00000d34 <__aeabi_l2f>:
     d34:	e1902001 	orrs	r2, r0, r1
     d38:	012fff1e 	bxeq	lr
     d3c:	e2113102 	ands	r3, r1, #-2147483648	; 0x80000000
     d40:	5a000001 	bpl	d4c <__aeabi_l2f+0x18>
     d44:	e2700000 	rsbs	r0, r0, #0
     d48:	e2e11000 	rsc	r1, r1, #0
     d4c:	e1b0c001 	movs	r12, r1
     d50:	01a0c000 	moveq	r12, r0
     d54:	01a01000 	moveq	r1, r0
     d58:	03a00000 	moveq	r0, #0
     d5c:	e383345b 	orr	r3, r3, #1526726656	; 0x5b000000
     d60:	02433201 	subeq	r3, r3, #268435456	; 0x10000000
     d64:	e2433502 	sub	r3, r3, #8388608	; 0x800000
     d68:	e3a02017 	mov	r2, #23
     d6c:	e35c0801 	cmp	r12, #65536	; 0x10000
     d70:	21a0c82c 	lsrcs	r12, r12, #16
     d74:	22422010 	subcs	r2, r2, #16
     d78:	e35c0c01 	cmp	r12, #256	; 0x100
     d7c:	21a0c42c 	lsrcs	r12, r12, #8
     d80:	22422008 	subcs	r2, r2, #8
     d84:	e35c0010 	cmp	r12, #16
     d88:	21a0c22c 	lsrcs	r12, r12, #4
     d8c:	22422004 	subcs	r2, r2, #4
     d90:	e35c0004 	cmp	r12, #4
     d94:	22422002 	subcs	r2, r2, #2
     d98:	304220ac 	subcc	r2, r2, r12, lsr #1
     d9c:	e05221ac 	subs	r2, r2, r12, lsr #3
     da0:	e0433b82 	sub	r3, r3, r2, lsl #23
     da4:	ba000006 	blt	dc4 <__aeabi_l2f+0x90>
     da8:	e0833211 	add	r3, r3, r1, lsl r2
     dac:	e1a0c210 	lsl	r12, r0, r2
     db0:	e2622020 	rsb	r2, r2, #32
     db4:	e35c0102 	cmp	r12, #-2147483648	; 0x80000000
     db8:	e0a30230 	adc	r0, r3, r0, lsr r2
     dbc:	03c00001 	biceq	r0, r0, #1
     dc0:	e12fff1e 	bx	lr
     dc4:	e2822020 	add	r2, r2, #32
     dc8:	e1a0c211 	lsl	r12, r1, r2
     dcc:	e2622020 	rsb	r2, r2, #32
     dd0:	e190008c 	orrs	r0, r0, r12, lsl #1
     dd4:	e0a30231 	adc	r0, r3, r1, lsr r2
     dd8:	01c00fac 	biceq	r0, r0, r12, lsr #31
     ddc:	e12fff1e 	bx	lr

00000de0 <__aeabi_fmul>:
     de0:	e3a0c0ff 	mov	r12, #255	; 0xff
     de4:	e01c2ba0 	ands	r2, r12, r0, lsr #23
     de8:	101c3ba1 	andsne	r3, r12, r1, lsr #23
     dec:	1132000c 	teqne	r2, r12
     df0:	1133000c 	teqne	r3, r12
     df4:	0a00003e 	beq	ef4 <__aeabi_fmul+0x114>
     df8:	e0822003 	add	r2, r2, r3
     dfc:	e020c001 	eor	r12, r0, r1
     e00:	e1b00480 	lsls	r0, r0, #9
     e04:	11b01481 	lslsne	r1, r1, #9
     e08:	0a000010 	beq	e50 <__aeabi_fmul+0x70>
     e0c:	e3a03302 	mov	r3, #134217728	; 0x8000000
     e10:	e18302a0 	orr	r0, r3, r0, lsr #5
     e14:	e18312a1 	orr	r1, r3, r1, lsr #5
     e18:	e0813190 	umull	r3, r1, r0, r1
     e1c:	e20c0102 	and	r0, r12, #-2147483648	; 0x80000000
     e20:	e3510502 	cmp	r1, #8388608	; 0x800000
     e24:	31a01081 	lslcc	r1, r1, #1
     e28:	31811fa3 	orrcc	r1, r1, r3, lsr #31
     e2c:	31a03083 	lslcc	r3, r3, #1
     e30:	e1800001 	orr	r0, r0, r1
     e34:	e2c2207f 	sbc	r2, r2, #127	; 0x7f
     e38:	e35200fd 	cmp	r2, #253	; 0xfd
     e3c:	8a00000f 	bhi	e80 <__aeabi_fmul+0xa0>
     e40:	e3530102 	cmp	r3, #-2147483648	; 0x80000000
     e44:	e0a00b82 	adc	r0, r0, r2, lsl #23
     e48:	03c00001 	biceq	r0, r0, #1
     e4c:	e12fff1e 	bx	lr
     e50:	e3300000 	teq	r0, #0
     e54:	e20cc102 	and	r12, r12, #-2147483648	; 0x80000000
     e58:	01a01481 	lsleq	r1, r1, #9
     e5c:	e18c04a0 	orr	r0, r12, r0, lsr #9
     e60:	e18004a1 	orr	r0, r0, r1, lsr #9
     e64:	e252207f 	subs	r2, r2, #127	; 0x7f
     e68:	c27230ff 	rsbsgt	r3, r2, #255	; 0xff
     e6c:	c1800b82 	orrgt	r0, r0, r2, lsl #23
     e70:	c12fff1e 	bxgt	lr
     e74:	e3800502 	orr	r0, r0, #8388608	; 0x800000
     e78:	e3a03000 	mov	r3, #0
     e7c:	e2522001 	subs	r2, r2, #1
     e80:	ca000035 	bgt	f5c <__aeabi_fmul+0x17c>
     e84:	e3720019 	cmn	r2, #25
     e88:	d2000102 	andle	r0, r0, #-2147483648	; 0x80000000
     e8c:	d12fff1e 	bxle	lr
     e90:	e2622000 	rsb	r2, r2, #0
     e94:	e1b01080 	lsls	r1, r0, #1
     e98:	e1a01231 	lsr	r1, r1, r2
     e9c:	e2622020 	rsb	r2, r2, #32
     ea0:	e1a0c210 	lsl	r12, r0, r2
     ea4:	e1b00061 	rrxs	r0, r1
     ea8:	e2a00000 	adc	r0, r0, #0
     eac:	e193308c 	orrs	r3, r3, r12, lsl #1
     eb0:	01c00fac 	biceq	r0, r0, r12, lsr #31
     eb4:	e12fff1e 	bx	lr
     eb8:	e3320000 	teq	r2, #0
     ebc:	e200c102 	and	r12, r0, #-2147483648	; 0x80000000
     ec0:	01a00080 	lsleq	r0, r0, #1
     ec4:	03100502 	tsteq	r0, #8388608	; 0x800000
     ec8:	02422001 	subeq	r2, r2, #1
     ecc:	0afffffb 	beq	ec0 <__aeabi_fmul+0xe0>
     ed0:	e180000c 	orr	r0, r0, r12
     ed4:	e3330000 	teq	r3, #0
     ed8:	e201c102 	and	r12, r1, #-2147483648	; 0x80000000
     edc:	01a01081 	lsleq	r1, r1, #1
     ee0:	03110502 	tsteq	r1, #8388608	; 0x800000
     ee4:	02433001 	subeq	r3, r3, #1
     ee8:	0afffffb 	beq	edc <__aeabi_fmul+0xfc>
     eec:	e181100c 	orr	r1, r1, r12
     ef0:	eaffffc0 	b	df8 <__aeabi_fmul+0x18>
     ef4:	e00c3ba1 	and	r3, r12, r1, lsr #23
     ef8:	e132000c 	teq	r2, r12
     efc:	1133000c 	teqne	r3, r12
     f00:	0a000005 	beq	f1c <__aeabi_fmul+0x13c>
     f04:	e3d0c102 	bics	r12, r0, #-2147483648	; 0x80000000
     f08:	13d1c102 	bicsne	r12, r1, #-2147483648	; 0x80000000
     f0c:	1affffe9 	bne	eb8 <__aeabi_fmul+0xd8>
     f10:	e0200001 	eor	r0, r0, r1
     f14:	e2000102 	and	r0, r0, #-2147483648	; 0x80000000
     f18:	e12fff1e 	bx	lr
     f1c:	e3300000 	teq	r0, #0
     f20:	13300102 	teqne	r0, #-2147483648	; 0x80000000
     f24:	01a00001 	moveq	r0, r1
     f28:	13310000 	teqne	r1, #0
     f2c:	13310102 	teqne	r1, #-2147483648	; 0x80000000
     f30:	0a00000d 	beq	f6c <__aeabi_fmul+0x18c>
     f34:	e132000c 	teq	r2, r12
     f38:	1a000001 	bne	f44 <__aeabi_fmul+0x164>
     f3c:	e1b02480 	lsls	r2, r0, #9
     f40:	1a000009 	bne	f6c <__aeabi_fmul+0x18c>
     f44:	e133000c 	teq	r3, r12
     f48:	1a000002 	bne	f58 <__aeabi_fmul+0x178>
     f4c:	e1b03481 	lsls	r3, r1, #9
     f50:	11a00001 	movne	r0, r1
     f54:	1a000004 	bne	f6c <__aeabi_fmul+0x18c>
     f58:	e0200001 	eor	r0, r0, r1
     f5c:	e2000102 	and	r0, r0, #-2147483648	; 0x80000000
     f60:	e380047f 	orr	r0, r0, #2130706432	; 0x7f000000
     f64:	e3800502 	orr	r0, r0, #8388608	; 0x800000
     f68:	e12fff1e 	bx	lr
     f6c:	e380047f 	orr	r0, r0, #2130706432	; 0x7f000000
     f70:	e3800503 	orr	r0, r0, #12582912	; 0xc00000
     f74:	e12fff1e 	bx	lr

00000f78 <__aeabi_fdiv>:
     f78:	e3a0c0ff 	mov	r12, #255	; 0xff
     f7c:	e01c2ba0 	ands	r2, r12, r0, lsr #23
     f80:	101c3ba1 	andsne	r3, r12, r1, lsr #23
     f84:	1132000c 	teqne	r2, r12
     f88:	1133000c 	teqne	r3, r12
     f8c:	0a00003a 	beq	107c <__aeabi_fdiv+0x104>
     f90:	e0422003 	sub	r2, r2, r3
     f94:	e020c001 	eor	r12, r0, r1
     f98:	e1b01481 	lsls	r1, r1, #9
     f9c:	e1a00480 	lsl	r0, r0, #9
     fa0:	0a00001c 	beq	1018 <__aeabi_fdiv+0xa0>
     fa4:	e3a03201 	mov	r3, #268435456	; 0x10000000
     fa8:	e1831221 	orr	r1, r3, r1, lsr #4
     fac:	e1833220 	orr	r3, r3, r0, lsr #4
     fb0:	e20c0102 	and	r0, r12, #-2147483648	; 0x80000000
     fb4:	e1530001 	cmp	r3, r1
     fb8:	31a03083 	lslcc	r3, r3, #1
     fbc:	e2a2207d 	adc	r2, r2, #125	; 0x7d
     fc0:	e3a0c502 	mov	r12, #8388608	; 0x800000
     fc4:	e1530001 	cmp	r3, r1
     fc8:	20433001 	subcs	r3, r3, r1
     fcc:	2180000c 	orrcs	r0, r0, r12
     fd0:	e15300a1 	cmp	r3, r1, lsr #1
     fd4:	204330a1 	subcs	r3, r3, r1, lsr #1
     fd8:	218000ac 	orrcs	r0, r0, r12, lsr #1
     fdc:	e1530121 	cmp	r3, r1, lsr #2
     fe0:	20433121 	subcs	r3, r3, r1, lsr #2
     fe4:	2180012c 	orrcs	r0, r0, r12, lsr #2
     fe8:	e15301a1 	cmp	r3, r1, lsr #3
     fec:	204331a1 	subcs	r3, r3, r1, lsr #3
     ff0:	218001ac 	orrcs	r0, r0, r12, lsr #3
     ff4:	e1b03203 	lsls	r3, r3, #4
     ff8:	11b0c22c 	lsrsne	r12, r12, #4
     ffc:	1afffff0 	bne	fc4 <__aeabi_fdiv+0x4c>
    1000:	e35200fd 	cmp	r2, #253	; 0xfd
    1004:	8affff9d 	bhi	e80 <__aeabi_fmul+0xa0>
    1008:	e1530001 	cmp	r3, r1
    100c:	e0a00b82 	adc	r0, r0, r2, lsl #23
    1010:	03c00001 	biceq	r0, r0, #1
    1014:	e12fff1e 	bx	lr
    1018:	e20cc102 	and	r12, r12, #-2147483648	; 0x80000000
    101c:	e18c04a0 	orr	r0, r12, r0, lsr #9
    1020:	e292207f 	adds	r2, r2, #127	; 0x7f
    1024:	c27230ff 	rsbsgt	r3, r2, #255	; 0xff
    1028:	c1800b82 	orrgt	r0, r0, r2, lsl #23
    102c:	c12fff1e 	bxgt	lr
    1030:	e3800502 	orr	r0, r0, #8388608	; 0x800000
    1034:	e3a03000 	mov	r3, #0
    1038:	e2522001 	subs	r2, r2, #1
    103c:	eaffff8f 	b	e80 <__aeabi_fmul+0xa0>
    1040:	e3320000 	teq	r2, #0
    1044:	e200c102 	and	r12, r0, #-2147483648	; 0x80000000
    1048:	01a00080 	lsleq	r0, r0, #1
    104c:	03100502 	tsteq	r0, #8388608	; 0x800000
    1050:	02422001 	subeq	r2, r2, #1
    1054:	0afffffb 	beq	1048 <__aeabi_fdiv+0xd0>
    1058:	e180000c 	orr	r0, r0, r12
    105c:	e3330000 	teq	r3, #0
    1060:	e201c102 	and	r12, r1, #-2147483648	; 0x80000000
    1064:	01a01081 	lsleq	r1, r1, #1
    1068:	03110502 	tsteq	r1, #8388608	; 0x800000
    106c:	02433001 	subeq	r3, r3, #1
    1070:	0afffffb 	beq	1064 <__aeabi_fdiv+0xec>
    1074:	e181100c 	orr	r1, r1, r12
    1078:	eaffffc4 	b	f90 <__aeabi_fdiv+0x18>
    107c:	e00c3ba1 	and	r3, r12, r1, lsr #23
    1080:	e132000c 	teq	r2, r12
    1084:	1a000005 	bne	10a0 <__aeabi_fdiv+0x128>
    1088:	e1b02480 	lsls	r2, r0, #9
    108c:	1affffb6 	bne	f6c <__aeabi_fmul+0x18c>
    1090:	e133000c 	teq	r3, r12
    1094:	1affffaf 	bne	f58 <__aeabi_fmul+0x178>
    1098:	e1a00001 	mov	r0, r1
    109c:	eaffffb2 	b	f6c <__aeabi_fmul+0x18c>
    10a0:	e133000c 	teq	r3, r12
    10a4:	1a000003 	bne	10b8 <__aeabi_fdiv+0x140>
    10a8:	e1b03481 	lsls	r3, r1, #9
    10ac:	0affff97 	beq	f10 <__aeabi_fmul+0x130>
    10b0:	e1a00001 	mov	r0, r1
    10b4:	eaffffac 	b	f6c <__aeabi_fmul+0x18c>
    10b8:	e3d0c102 	bics	r12, r0, #-2147483648	; 0x80000000
    10bc:	13d1c102 	bicsne	r12, r1, #-2147483648	; 0x80000000
    10c0:	1affffde 	bne	1040 <__aeabi_fdiv+0xc8>
    10c4:	e3d02102 	bics	r2, r0, #-2147483648	; 0x80000000
    10c8:	1affffa2 	bne	f58 <__aeabi_fmul+0x178>
    10cc:	e3d13102 	bics	r3, r1, #-2147483648	; 0x80000000
    10d0:	1affff8e 	bne	f10 <__aeabi_fmul+0x130>
    10d4:	eaffffa4 	b	f6c <__aeabi_fmul+0x18c>

000010d8 <__aeabi_ldivmod>:
    10d8:	e3530000 	cmp	r3, #0
    10dc:	03520000 	cmpeq	r2, #0
    10e0:	1a000006 	bne	1100 <__aeabi_ldivmod+0x28>
    10e4:	e3510000 	cmp	r1, #0
    10e8:	03500000 	cmpeq	r0, #0
    10ec:	b3a01102 	movlt	r1, #-2147483648	; 0x80000000
    10f0:	b3a00000 	movlt	r0, #0
    10f4:	c3e01102 	mvngt	r1, #-2147483648	; 0x80000000
    10f8:	c3e00000 	mvngt	r0, #0
    10fc:	eafffd84 	b	714 <__aeabi_idiv0>
    1100:	e24dd008 	sub	sp, sp, #8
    1104:	e92d6000 	push	{sp, lr}
    1108:	eb000003 	bl	111c <__gnu_ldivmod_helper>
    110c:	e59de004 	ldr	lr, [sp, #4]
    1110:	e28dd008 	add	sp, sp, #8
    1114:	e8bd000c 	pop	{r2, r3}
    1118:	e12fff1e 	bx	lr

0000111c <__gnu_ldivmod_helper>:
    111c:	e92d45f8 	push	{r3, r4, r5, r6, r7, r8, r10, lr}
    1120:	e1a08002 	mov	r8, r2
    1124:	e1a0a003 	mov	r10, r3
    1128:	e1a06000 	mov	r6, r0
    112c:	e1a07001 	mov	r7, r1
    1130:	eb00001a 	bl	11a0 <__divdi3>
    1134:	e0030198 	mul	r3, r8, r1
    1138:	e1a02000 	mov	r2, r0
    113c:	e0854098 	umull	r4, r5, r8, r0
    1140:	e022329a 	mla	r2, r10, r2, r3
    1144:	e59d3020 	ldr	r3, [sp, #32]
    1148:	e0825005 	add	r5, r2, r5
    114c:	e0564004 	subs	r4, r6, r4
    1150:	e0c75005 	sbc	r5, r7, r5
    1154:	e8830030 	stm	r3, {r4, r5}
    1158:	e8bd45f8 	pop	{r3, r4, r5, r6, r7, r8, r10, lr}
    115c:	e12fff1e 	bx	lr

00001160 <__gnu_uldivmod_helper>:
    1160:	e92d41f0 	push	{r4, r5, r6, r7, r8, lr}
    1164:	e1a08002 	mov	r8, r2
    1168:	e1a06000 	mov	r6, r0
    116c:	e1a07001 	mov	r7, r1
    1170:	e1a04003 	mov	r4, r3
    1174:	eb000145 	bl	1690 <__udivdi3>
    1178:	e0030490 	mul	r3, r0, r4
    117c:	e0854890 	umull	r4, r5, r0, r8
    1180:	e0283891 	mla	r8, r1, r8, r3
    1184:	e59d3018 	ldr	r3, [sp, #24]
    1188:	e0885005 	add	r5, r8, r5
    118c:	e0564004 	subs	r4, r6, r4
    1190:	e0c75005 	sbc	r5, r7, r5
    1194:	e8830030 	stm	r3, {r4, r5}
    1198:	e8bd41f0 	pop	{r4, r5, r6, r7, r8, lr}
    119c:	e12fff1e 	bx	lr

000011a0 <__divdi3>:
    11a0:	e92d4ff0 	push	{r4, r5, r6, r7, r8, r9, r10, r11, lr}
    11a4:	e3510000 	cmp	r1, #0
    11a8:	e24dd00c 	sub	sp, sp, #12
    11ac:	e1a0c003 	mov	r12, r3
    11b0:	a3a05000 	movge	r5, #0
    11b4:	ba00009b 	blt	1428 <__divdi3+0x288>
    11b8:	e35c0000 	cmp	r12, #0
    11bc:	ba000095 	blt	1418 <__divdi3+0x278>
    11c0:	e2539000 	subs	r9, r3, #0
    11c4:	e1a08000 	mov	r8, r0
    11c8:	e1a0a001 	mov	r10, r1
    11cc:	e1a0b002 	mov	r11, r2
    11d0:	e1a04002 	mov	r4, r2
    11d4:	e1a06000 	mov	r6, r0
    11d8:	e1a07001 	mov	r7, r1
    11dc:	1a000042 	bne	12ec <__divdi3+0x14c>
    11e0:	e1520001 	cmp	r2, r1
    11e4:	9a000050 	bls	132c <__divdi3+0x18c>
    11e8:	e1a00002 	mov	r0, r2
    11ec:	eb00028e 	bl	1c2c <__clzsi2>
    11f0:	e3500000 	cmp	r0, #0
    11f4:	12603020 	rsbne	r3, r0, #32
    11f8:	11a03338 	lsrne	r3, r8, r3
    11fc:	11a0401b 	lslne	r4, r11, r0
    1200:	1183701a 	orrne	r7, r3, r10, lsl r0
    1204:	11a06018 	lslne	r6, r8, r0
    1208:	e1a08824 	lsr	r8, r4, #16
    120c:	e1a01008 	mov	r1, r8
    1210:	e1a00007 	mov	r0, r7
    1214:	eb00023f 	bl	1b18 <__aeabi_uidiv>
    1218:	e1a01008 	mov	r1, r8
    121c:	e1a09000 	mov	r9, r0
    1220:	e1a00007 	mov	r0, r7
    1224:	eb000278 	bl	1c0c <__aeabi_uidivmod>
    1228:	e1a0a804 	lsl	r10, r4, #16
    122c:	e1a0a82a 	lsr	r10, r10, #16
    1230:	e000099a 	mul	r0, r10, r9
    1234:	e1a03826 	lsr	r3, r6, #16
    1238:	e1831801 	orr	r1, r3, r1, lsl #16
    123c:	e1500001 	cmp	r0, r1
    1240:	9a000007 	bls	1264 <__divdi3+0xc4>
    1244:	e0911004 	adds	r1, r1, r4
    1248:	e2492001 	sub	r2, r9, #1
    124c:	2a000003 	bcs	1260 <__divdi3+0xc0>
    1250:	e1500001 	cmp	r0, r1
    1254:	82499002 	subhi	r9, r9, #2
    1258:	80811004 	addhi	r1, r1, r4
    125c:	8a000000 	bhi	1264 <__divdi3+0xc4>
    1260:	e1a09002 	mov	r9, r2
    1264:	e060b001 	rsb	r11, r0, r1
    1268:	e1a0000b 	mov	r0, r11
    126c:	e1a01008 	mov	r1, r8
    1270:	eb000228 	bl	1b18 <__aeabi_uidiv>
    1274:	e1a01008 	mov	r1, r8
    1278:	e1a07000 	mov	r7, r0
    127c:	e1a0000b 	mov	r0, r11
    1280:	eb000261 	bl	1c0c <__aeabi_uidivmod>
    1284:	e00a0a97 	mul	r10, r7, r10
    1288:	e1a06806 	lsl	r6, r6, #16
    128c:	e1a06826 	lsr	r6, r6, #16
    1290:	e1861801 	orr	r1, r6, r1, lsl #16
    1294:	e15a0001 	cmp	r10, r1
    1298:	9a000006 	bls	12b8 <__divdi3+0x118>
    129c:	e0914004 	adds	r4, r1, r4
    12a0:	e2473001 	sub	r3, r7, #1
    12a4:	2a000002 	bcs	12b4 <__divdi3+0x114>
    12a8:	e15a0004 	cmp	r10, r4
    12ac:	82477002 	subhi	r7, r7, #2
    12b0:	8a000000 	bhi	12b8 <__divdi3+0x118>
    12b4:	e1a07003 	mov	r7, r3
    12b8:	e1870809 	orr	r0, r7, r9, lsl #16
    12bc:	e3a08000 	mov	r8, #0
    12c0:	e3550000 	cmp	r5, #0
    12c4:	e1a02000 	mov	r2, r0
    12c8:	e1a03008 	mov	r3, r8
    12cc:	0a000001 	beq	12d8 <__divdi3+0x138>
    12d0:	e2722000 	rsbs	r2, r2, #0
    12d4:	e2e33000 	rsc	r3, r3, #0
    12d8:	e1a00002 	mov	r0, r2
    12dc:	e1a01003 	mov	r1, r3
    12e0:	e28dd00c 	add	sp, sp, #12
    12e4:	e8bd4ff0 	pop	{r4, r5, r6, r7, r8, r9, r10, r11, lr}
    12e8:	e12fff1e 	bx	lr
    12ec:	e1590001 	cmp	r9, r1
    12f0:	83a08000 	movhi	r8, #0
    12f4:	81a00008 	movhi	r0, r8
    12f8:	8afffff0 	bhi	12c0 <__divdi3+0x120>
    12fc:	e1a00003 	mov	r0, r3
    1300:	eb000249 	bl	1c2c <__clzsi2>
    1304:	e2504000 	subs	r4, r0, #0
    1308:	1a000083 	bne	151c <__divdi3+0x37c>
    130c:	e159000a 	cmp	r9, r10
    1310:	215b0008 	cmpcs	r11, r8
    1314:	83a08000 	movhi	r8, #0
    1318:	93a08001 	movls	r8, #1
    131c:	93a00001 	movls	r0, #1
    1320:	91a08004 	movls	r8, r4
    1324:	81a00008 	movhi	r0, r8
    1328:	eaffffe4 	b	12c0 <__divdi3+0x120>
    132c:	e3520000 	cmp	r2, #0
    1330:	1a000003 	bne	1344 <__divdi3+0x1a4>
    1334:	e3a00001 	mov	r0, #1
    1338:	e1a01002 	mov	r1, r2
    133c:	eb0001f5 	bl	1b18 <__aeabi_uidiv>
    1340:	e1a04000 	mov	r4, r0
    1344:	e1a00004 	mov	r0, r4
    1348:	eb000237 	bl	1c2c <__clzsi2>
    134c:	e2503000 	subs	r3, r0, #0
    1350:	1a000038 	bne	1438 <__divdi3+0x298>
    1354:	e1a09804 	lsl	r9, r4, #16
    1358:	e0647007 	rsb	r7, r4, r7
    135c:	e1a0a824 	lsr	r10, r4, #16
    1360:	e1a09829 	lsr	r9, r9, #16
    1364:	e3a08001 	mov	r8, #1
    1368:	e1a0100a 	mov	r1, r10
    136c:	e1a00007 	mov	r0, r7
    1370:	eb0001e8 	bl	1b18 <__aeabi_uidiv>
    1374:	e1a0100a 	mov	r1, r10
    1378:	e1a0b000 	mov	r11, r0
    137c:	e1a00007 	mov	r0, r7
    1380:	eb000221 	bl	1c0c <__aeabi_uidivmod>
    1384:	e0000b99 	mul	r0, r9, r11
    1388:	e1a03826 	lsr	r3, r6, #16
    138c:	e1831801 	orr	r1, r3, r1, lsl #16
    1390:	e1500001 	cmp	r0, r1
    1394:	9a000006 	bls	13b4 <__divdi3+0x214>
    1398:	e0911004 	adds	r1, r1, r4
    139c:	e24b3001 	sub	r3, r11, #1
    13a0:	2a0000b2 	bcs	1670 <__divdi3+0x4d0>
    13a4:	e1500001 	cmp	r0, r1
    13a8:	824bb002 	subhi	r11, r11, #2
    13ac:	80811004 	addhi	r1, r1, r4
    13b0:	9a0000ae 	bls	1670 <__divdi3+0x4d0>
    13b4:	e0603001 	rsb	r3, r0, r1
    13b8:	e1a00003 	mov	r0, r3
    13bc:	e1a0100a 	mov	r1, r10
    13c0:	e58d3000 	str	r3, [sp]
    13c4:	eb0001d3 	bl	1b18 <__aeabi_uidiv>
    13c8:	e59d3000 	ldr	r3, [sp]
    13cc:	e1a07000 	mov	r7, r0
    13d0:	e1a0100a 	mov	r1, r10
    13d4:	e1a00003 	mov	r0, r3
    13d8:	eb00020b 	bl	1c0c <__aeabi_uidivmod>
    13dc:	e0090997 	mul	r9, r7, r9
    13e0:	e1a06806 	lsl	r6, r6, #16
    13e4:	e1a06826 	lsr	r6, r6, #16
    13e8:	e1861801 	orr	r1, r6, r1, lsl #16
    13ec:	e1590001 	cmp	r9, r1
    13f0:	9a000006 	bls	1410 <__divdi3+0x270>
    13f4:	e0914004 	adds	r4, r1, r4
    13f8:	e2473001 	sub	r3, r7, #1
    13fc:	2a000002 	bcs	140c <__divdi3+0x26c>
    1400:	e1590004 	cmp	r9, r4
    1404:	82477002 	subhi	r7, r7, #2
    1408:	8a000000 	bhi	1410 <__divdi3+0x270>
    140c:	e1a07003 	mov	r7, r3
    1410:	e187080b 	orr	r0, r7, r11, lsl #16
    1414:	eaffffa9 	b	12c0 <__divdi3+0x120>
    1418:	e1e05005 	mvn	r5, r5
    141c:	e2722000 	rsbs	r2, r2, #0
    1420:	e2e33000 	rsc	r3, r3, #0
    1424:	eaffff65 	b	11c0 <__divdi3+0x20>
    1428:	e2700000 	rsbs	r0, r0, #0
    142c:	e2e11000 	rsc	r1, r1, #0
    1430:	e3e05000 	mvn	r5, #0
    1434:	eaffff5f 	b	11b8 <__divdi3+0x18>
    1438:	e1a04314 	lsl	r4, r4, r3
    143c:	e263b020 	rsb	r11, r3, #32
    1440:	e1a08b37 	lsr	r8, r7, r11
    1444:	e1a0bb36 	lsr	r11, r6, r11
    1448:	e1a0a824 	lsr	r10, r4, #16
    144c:	e1a0100a 	mov	r1, r10
    1450:	e1a00008 	mov	r0, r8
    1454:	e18bb317 	orr	r11, r11, r7, lsl r3
    1458:	e1a06316 	lsl	r6, r6, r3
    145c:	eb0001ad 	bl	1b18 <__aeabi_uidiv>
    1460:	e1a0100a 	mov	r1, r10
    1464:	e1a03000 	mov	r3, r0
    1468:	e1a00008 	mov	r0, r8
    146c:	e58d3000 	str	r3, [sp]
    1470:	eb0001e5 	bl	1c0c <__aeabi_uidivmod>
    1474:	e1a09804 	lsl	r9, r4, #16
    1478:	e59d3000 	ldr	r3, [sp]
    147c:	e1a09829 	lsr	r9, r9, #16
    1480:	e0000399 	mul	r0, r9, r3
    1484:	e1a0282b 	lsr	r2, r11, #16
    1488:	e1821801 	orr	r1, r2, r1, lsl #16
    148c:	e1500001 	cmp	r0, r1
    1490:	9a000006 	bls	14b0 <__divdi3+0x310>
    1494:	e0911004 	adds	r1, r1, r4
    1498:	e2432001 	sub	r2, r3, #1
    149c:	2a000079 	bcs	1688 <__divdi3+0x4e8>
    14a0:	e1500001 	cmp	r0, r1
    14a4:	82433002 	subhi	r3, r3, #2
    14a8:	80811004 	addhi	r1, r1, r4
    14ac:	9a000075 	bls	1688 <__divdi3+0x4e8>
    14b0:	e0607001 	rsb	r7, r0, r1
    14b4:	e1a00007 	mov	r0, r7
    14b8:	e1a0100a 	mov	r1, r10
    14bc:	e58d3000 	str	r3, [sp]
    14c0:	eb000194 	bl	1b18 <__aeabi_uidiv>
    14c4:	e1a0100a 	mov	r1, r10
    14c8:	e1a08000 	mov	r8, r0
    14cc:	e1a00007 	mov	r0, r7
    14d0:	eb0001cd 	bl	1c0c <__aeabi_uidivmod>
    14d4:	e0070899 	mul	r7, r9, r8
    14d8:	e1a0b80b 	lsl	r11, r11, #16
    14dc:	e1a0b82b 	lsr	r11, r11, #16
    14e0:	e18b1801 	orr	r1, r11, r1, lsl #16
    14e4:	e1570001 	cmp	r7, r1
    14e8:	e59d3000 	ldr	r3, [sp]
    14ec:	9a000007 	bls	1510 <__divdi3+0x370>
    14f0:	e0911004 	adds	r1, r1, r4
    14f4:	e2482001 	sub	r2, r8, #1
    14f8:	2a000003 	bcs	150c <__divdi3+0x36c>
    14fc:	e1570001 	cmp	r7, r1
    1500:	82488002 	subhi	r8, r8, #2
    1504:	80811004 	addhi	r1, r1, r4
    1508:	8a000000 	bhi	1510 <__divdi3+0x370>
    150c:	e1a08002 	mov	r8, r2
    1510:	e0677001 	rsb	r7, r7, r1
    1514:	e1888803 	orr	r8, r8, r3, lsl #16
    1518:	eaffff92 	b	1368 <__divdi3+0x1c8>
    151c:	e2643020 	rsb	r3, r4, #32
    1520:	e1a0233b 	lsr	r2, r11, r3
    1524:	e1829419 	orr	r9, r2, r9, lsl r4
    1528:	e1a0233a 	lsr	r2, r10, r3
    152c:	e1a03336 	lsr	r3, r6, r3
    1530:	e1a07829 	lsr	r7, r9, #16
    1534:	e1a01007 	mov	r1, r7
    1538:	e1a00002 	mov	r0, r2
    153c:	e183a41a 	orr	r10, r3, r10, lsl r4
    1540:	e58d2004 	str	r2, [sp, #4]
    1544:	eb000173 	bl	1b18 <__aeabi_uidiv>
    1548:	e59d2004 	ldr	r2, [sp, #4]
    154c:	e1a03000 	mov	r3, r0
    1550:	e1a01007 	mov	r1, r7
    1554:	e1a00002 	mov	r0, r2
    1558:	e58d3000 	str	r3, [sp]
    155c:	eb0001aa 	bl	1c0c <__aeabi_uidivmod>
    1560:	e1a08809 	lsl	r8, r9, #16
    1564:	e59d3000 	ldr	r3, [sp]
    1568:	e1a08828 	lsr	r8, r8, #16
    156c:	e0000398 	mul	r0, r8, r3
    1570:	e1a0282a 	lsr	r2, r10, #16
    1574:	e1821801 	orr	r1, r2, r1, lsl #16
    1578:	e1500001 	cmp	r0, r1
    157c:	e1a0b41b 	lsl	r11, r11, r4
    1580:	9a000006 	bls	15a0 <__divdi3+0x400>
    1584:	e0911009 	adds	r1, r1, r9
    1588:	e2432001 	sub	r2, r3, #1
    158c:	2a00003b 	bcs	1680 <__divdi3+0x4e0>
    1590:	e1500001 	cmp	r0, r1
    1594:	82433002 	subhi	r3, r3, #2
    1598:	80811009 	addhi	r1, r1, r9
    159c:	9a000037 	bls	1680 <__divdi3+0x4e0>
    15a0:	e060c001 	rsb	r12, r0, r1
    15a4:	e1a0000c 	mov	r0, r12
    15a8:	e1a01007 	mov	r1, r7
    15ac:	e88d1008 	stm	sp, {r3, r12}
    15b0:	eb000158 	bl	1b18 <__aeabi_uidiv>
    15b4:	e59dc004 	ldr	r12, [sp, #4]
    15b8:	e1a02000 	mov	r2, r0
    15bc:	e1a01007 	mov	r1, r7
    15c0:	e1a0000c 	mov	r0, r12
    15c4:	e58d2004 	str	r2, [sp, #4]
    15c8:	eb00018f 	bl	1c0c <__aeabi_uidivmod>
    15cc:	e59d2004 	ldr	r2, [sp, #4]
    15d0:	e0080892 	mul	r8, r2, r8
    15d4:	e1a0a80a 	lsl	r10, r10, #16
    15d8:	e1a0a82a 	lsr	r10, r10, #16
    15dc:	e18a1801 	orr	r1, r10, r1, lsl #16
    15e0:	e1580001 	cmp	r8, r1
    15e4:	e59d3000 	ldr	r3, [sp]
    15e8:	9a000006 	bls	1608 <__divdi3+0x468>
    15ec:	e0911009 	adds	r1, r1, r9
    15f0:	e2420001 	sub	r0, r2, #1
    15f4:	2a00001f 	bcs	1678 <__divdi3+0x4d8>
    15f8:	e1580001 	cmp	r8, r1
    15fc:	82422002 	subhi	r2, r2, #2
    1600:	80811009 	addhi	r1, r1, r9
    1604:	9a00001b 	bls	1678 <__divdi3+0x4d8>
    1608:	e0688001 	rsb	r8, r8, r1
    160c:	e1820803 	orr	r0, r2, r3, lsl #16
    1610:	e1a01820 	lsr	r1, r0, #16
    1614:	e1a0382b 	lsr	r3, r11, #16
    1618:	e1c0c801 	bic	r12, r0, r1, lsl #16
    161c:	e1cbb803 	bic	r11, r11, r3, lsl #16
    1620:	e0020b9c 	mul	r2, r12, r11
    1624:	e00b0b91 	mul	r11, r1, r11
    1628:	e00c0c93 	mul	r12, r3, r12
    162c:	e0030391 	mul	r3, r1, r3
    1630:	e09bc00c 	adds	r12, r11, r12
    1634:	22833801 	addcs	r3, r3, #65536	; 0x10000
    1638:	e092280c 	adds	r2, r2, r12, lsl #16
    163c:	e0a3382c 	adc	r3, r3, r12, lsr #16
    1640:	e1580003 	cmp	r8, r3
    1644:	3a000006 	bcc	1664 <__divdi3+0x4c4>
    1648:	13a08000 	movne	r8, #0
    164c:	03a08001 	moveq	r8, #1
    1650:	e1520416 	cmp	r2, r6, lsl r4
    1654:	93a08000 	movls	r8, #0
    1658:	82088001 	andhi	r8, r8, #1
    165c:	e3580000 	cmp	r8, #0
    1660:	0affff16 	beq	12c0 <__divdi3+0x120>
    1664:	e2400001 	sub	r0, r0, #1
    1668:	e3a08000 	mov	r8, #0
    166c:	eaffff13 	b	12c0 <__divdi3+0x120>
    1670:	e1a0b003 	mov	r11, r3
    1674:	eaffff4e 	b	13b4 <__divdi3+0x214>
    1678:	e1a02000 	mov	r2, r0
    167c:	eaffffe1 	b	1608 <__divdi3+0x468>
    1680:	e1a03002 	mov	r3, r2
    1684:	eaffffc5 	b	15a0 <__divdi3+0x400>
    1688:	e1a03002 	mov	r3, r2
    168c:	eaffff87 	b	14b0 <__divdi3+0x310>

00001690 <__udivdi3>:
    1690:	e92d4ff0 	push	{r4, r5, r6, r7, r8, r9, r10, r11, lr}
    1694:	e253a000 	subs	r10, r3, #0
    1698:	e24dd00c 	sub	sp, sp, #12
    169c:	e1a06000 	mov	r6, r0
    16a0:	e1a05001 	mov	r5, r1
    16a4:	e1a07002 	mov	r7, r2
    16a8:	e1a04002 	mov	r4, r2
    16ac:	e1a08000 	mov	r8, r0
    16b0:	e1a09001 	mov	r9, r1
    16b4:	1a00003a 	bne	17a4 <__udivdi3+0x114>
    16b8:	e1520001 	cmp	r2, r1
    16bc:	9a000048 	bls	17e4 <__udivdi3+0x154>
    16c0:	e1a00002 	mov	r0, r2
    16c4:	eb000158 	bl	1c2c <__clzsi2>
    16c8:	e3500000 	cmp	r0, #0
    16cc:	12603020 	rsbne	r3, r0, #32
    16d0:	11a03336 	lsrne	r3, r6, r3
    16d4:	11a04017 	lslne	r4, r7, r0
    16d8:	11839015 	orrne	r9, r3, r5, lsl r0
    16dc:	e1a05824 	lsr	r5, r4, #16
    16e0:	11a08016 	lslne	r8, r6, r0
    16e4:	e1a01005 	mov	r1, r5
    16e8:	e1a00009 	mov	r0, r9
    16ec:	eb000109 	bl	1b18 <__aeabi_uidiv>
    16f0:	e1a01005 	mov	r1, r5
    16f4:	e1a07000 	mov	r7, r0
    16f8:	e1a00009 	mov	r0, r9
    16fc:	eb000142 	bl	1c0c <__aeabi_uidivmod>
    1700:	e1a0a804 	lsl	r10, r4, #16
    1704:	e1a0a82a 	lsr	r10, r10, #16
    1708:	e000079a 	mul	r0, r10, r7
    170c:	e1a03828 	lsr	r3, r8, #16
    1710:	e1831801 	orr	r1, r3, r1, lsl #16
    1714:	e1500001 	cmp	r0, r1
    1718:	9a000007 	bls	173c <__udivdi3+0xac>
    171c:	e0911004 	adds	r1, r1, r4
    1720:	e2472001 	sub	r2, r7, #1
    1724:	2a000003 	bcs	1738 <__udivdi3+0xa8>
    1728:	e1500001 	cmp	r0, r1
    172c:	82477002 	subhi	r7, r7, #2
    1730:	80811004 	addhi	r1, r1, r4
    1734:	8a000000 	bhi	173c <__udivdi3+0xac>
    1738:	e1a07002 	mov	r7, r2
    173c:	e0609001 	rsb	r9, r0, r1
    1740:	e1a00009 	mov	r0, r9
    1744:	e1a01005 	mov	r1, r5
    1748:	eb0000f2 	bl	1b18 <__aeabi_uidiv>
    174c:	e1a01005 	mov	r1, r5
    1750:	e1a06000 	mov	r6, r0
    1754:	e1a00009 	mov	r0, r9
    1758:	eb00012b 	bl	1c0c <__aeabi_uidivmod>
    175c:	e00a0a96 	mul	r10, r6, r10
    1760:	e1a08808 	lsl	r8, r8, #16
    1764:	e1a08828 	lsr	r8, r8, #16
    1768:	e1881801 	orr	r1, r8, r1, lsl #16
    176c:	e15a0001 	cmp	r10, r1
    1770:	9a000005 	bls	178c <__udivdi3+0xfc>
    1774:	e0914004 	adds	r4, r1, r4
    1778:	e2463001 	sub	r3, r6, #1
    177c:	2a0000d3 	bcs	1ad0 <__udivdi3+0x440>
    1780:	e15a0004 	cmp	r10, r4
    1784:	82466002 	subhi	r6, r6, #2
    1788:	9a0000d0 	bls	1ad0 <__udivdi3+0x440>
    178c:	e1860807 	orr	r0, r6, r7, lsl #16
    1790:	e3a06000 	mov	r6, #0
    1794:	e1a01006 	mov	r1, r6
    1798:	e28dd00c 	add	sp, sp, #12
    179c:	e8bd4ff0 	pop	{r4, r5, r6, r7, r8, r9, r10, r11, lr}
    17a0:	e12fff1e 	bx	lr
    17a4:	e15a0001 	cmp	r10, r1
    17a8:	83a06000 	movhi	r6, #0
    17ac:	81a00006 	movhi	r0, r6
    17b0:	8afffff7 	bhi	1794 <__udivdi3+0x104>
    17b4:	e1a0000a 	mov	r0, r10
    17b8:	eb00011b 	bl	1c2c <__clzsi2>
    17bc:	e2504000 	subs	r4, r0, #0
    17c0:	1a00003f 	bne	18c4 <__udivdi3+0x234>
    17c4:	e15a0005 	cmp	r10, r5
    17c8:	21570006 	cmpcs	r7, r6
    17cc:	83a06000 	movhi	r6, #0
    17d0:	93a06001 	movls	r6, #1
    17d4:	93a00001 	movls	r0, #1
    17d8:	91a06004 	movls	r6, r4
    17dc:	81a00006 	movhi	r0, r6
    17e0:	eaffffeb 	b	1794 <__udivdi3+0x104>
    17e4:	e3520000 	cmp	r2, #0
    17e8:	1a000003 	bne	17fc <__udivdi3+0x16c>
    17ec:	e3a00001 	mov	r0, #1
    17f0:	e1a01002 	mov	r1, r2
    17f4:	eb0000c7 	bl	1b18 <__aeabi_uidiv>
    17f8:	e1a04000 	mov	r4, r0
    17fc:	e1a00004 	mov	r0, r4
    1800:	eb000109 	bl	1c2c <__clzsi2>
    1804:	e2503000 	subs	r3, r0, #0
    1808:	1a000079 	bne	19f4 <__udivdi3+0x364>
    180c:	e1a09804 	lsl	r9, r4, #16
    1810:	e0645005 	rsb	r5, r4, r5
    1814:	e1a0a824 	lsr	r10, r4, #16
    1818:	e1a09829 	lsr	r9, r9, #16
    181c:	e3a06001 	mov	r6, #1
    1820:	e1a0100a 	mov	r1, r10
    1824:	e1a00005 	mov	r0, r5
    1828:	eb0000ba 	bl	1b18 <__aeabi_uidiv>
    182c:	e1a0100a 	mov	r1, r10
    1830:	e1a07000 	mov	r7, r0
    1834:	e1a00005 	mov	r0, r5
    1838:	eb0000f3 	bl	1c0c <__aeabi_uidivmod>
    183c:	e0000799 	mul	r0, r9, r7
    1840:	e1a03828 	lsr	r3, r8, #16
    1844:	e1831801 	orr	r1, r3, r1, lsl #16
    1848:	e1500001 	cmp	r0, r1
    184c:	9a000006 	bls	186c <__udivdi3+0x1dc>
    1850:	e0911004 	adds	r1, r1, r4
    1854:	e2473001 	sub	r3, r7, #1
    1858:	2a00009e 	bcs	1ad8 <__udivdi3+0x448>
    185c:	e1500001 	cmp	r0, r1
    1860:	82477002 	subhi	r7, r7, #2
    1864:	80811004 	addhi	r1, r1, r4
    1868:	9a00009a 	bls	1ad8 <__udivdi3+0x448>
    186c:	e060b001 	rsb	r11, r0, r1
    1870:	e1a0000b 	mov	r0, r11
    1874:	e1a0100a 	mov	r1, r10
    1878:	eb0000a6 	bl	1b18 <__aeabi_uidiv>
    187c:	e1a0100a 	mov	r1, r10
    1880:	e1a05000 	mov	r5, r0
    1884:	e1a0000b 	mov	r0, r11
    1888:	eb0000df 	bl	1c0c <__aeabi_uidivmod>
    188c:	e0090995 	mul	r9, r5, r9
    1890:	e1a08808 	lsl	r8, r8, #16
    1894:	e1a08828 	lsr	r8, r8, #16
    1898:	e1881801 	orr	r1, r8, r1, lsl #16
    189c:	e1590001 	cmp	r9, r1
    18a0:	9a000005 	bls	18bc <__udivdi3+0x22c>
    18a4:	e0914004 	adds	r4, r1, r4
    18a8:	e2453001 	sub	r3, r5, #1
    18ac:	2a00008b 	bcs	1ae0 <__udivdi3+0x450>
    18b0:	e1590004 	cmp	r9, r4
    18b4:	82455002 	subhi	r5, r5, #2
    18b8:	9a000088 	bls	1ae0 <__udivdi3+0x450>
    18bc:	e1850807 	orr	r0, r5, r7, lsl #16
    18c0:	eaffffb3 	b	1794 <__udivdi3+0x104>
    18c4:	e2643020 	rsb	r3, r4, #32
    18c8:	e1a02337 	lsr	r2, r7, r3
    18cc:	e182a41a 	orr	r10, r2, r10, lsl r4
    18d0:	e1a02335 	lsr	r2, r5, r3
    18d4:	e1a03336 	lsr	r3, r6, r3
    18d8:	e1a0882a 	lsr	r8, r10, #16
    18dc:	e1a01008 	mov	r1, r8
    18e0:	e1a00002 	mov	r0, r2
    18e4:	e1835415 	orr	r5, r3, r5, lsl r4
    18e8:	e58d2004 	str	r2, [sp, #4]
    18ec:	eb000089 	bl	1b18 <__aeabi_uidiv>
    18f0:	e59d2004 	ldr	r2, [sp, #4]
    18f4:	e1a0b000 	mov	r11, r0
    18f8:	e1a01008 	mov	r1, r8
    18fc:	e1a00002 	mov	r0, r2
    1900:	eb0000c1 	bl	1c0c <__aeabi_uidivmod>
    1904:	e1a0980a 	lsl	r9, r10, #16
    1908:	e1a09829 	lsr	r9, r9, #16
    190c:	e0000b99 	mul	r0, r9, r11
    1910:	e1a03825 	lsr	r3, r5, #16
    1914:	e1831801 	orr	r1, r3, r1, lsl #16
    1918:	e1500001 	cmp	r0, r1
    191c:	e1a07417 	lsl	r7, r7, r4
    1920:	9a000003 	bls	1934 <__udivdi3+0x2a4>
    1924:	e091100a 	adds	r1, r1, r10
    1928:	e24b2001 	sub	r2, r11, #1
    192c:	3a000072 	bcc	1afc <__udivdi3+0x46c>
    1930:	e1a0b002 	mov	r11, r2
    1934:	e0603001 	rsb	r3, r0, r1
    1938:	e1a00003 	mov	r0, r3
    193c:	e1a01008 	mov	r1, r8
    1940:	e58d3004 	str	r3, [sp, #4]
    1944:	eb000073 	bl	1b18 <__aeabi_uidiv>
    1948:	e59d3004 	ldr	r3, [sp, #4]
    194c:	e1a02000 	mov	r2, r0
    1950:	e1a01008 	mov	r1, r8
    1954:	e1a00003 	mov	r0, r3
    1958:	e58d2004 	str	r2, [sp, #4]
    195c:	eb0000aa 	bl	1c0c <__aeabi_uidivmod>
    1960:	e59d2004 	ldr	r2, [sp, #4]
    1964:	e0090992 	mul	r9, r2, r9
    1968:	e1a05805 	lsl	r5, r5, #16
    196c:	e1a05825 	lsr	r5, r5, #16
    1970:	e1851801 	orr	r1, r5, r1, lsl #16
    1974:	e1590001 	cmp	r9, r1
    1978:	9a000003 	bls	198c <__udivdi3+0x2fc>
    197c:	e091100a 	adds	r1, r1, r10
    1980:	e2423001 	sub	r3, r2, #1
    1984:	3a000057 	bcc	1ae8 <__udivdi3+0x458>
    1988:	e1a02003 	mov	r2, r3
    198c:	e0699001 	rsb	r9, r9, r1
    1990:	e182080b 	orr	r0, r2, r11, lsl #16
    1994:	e1a01820 	lsr	r1, r0, #16
    1998:	e1a03827 	lsr	r3, r7, #16
    199c:	e1c0c801 	bic	r12, r0, r1, lsl #16
    19a0:	e1c77803 	bic	r7, r7, r3, lsl #16
    19a4:	e002079c 	mul	r2, r12, r7
    19a8:	e0070791 	mul	r7, r1, r7
    19ac:	e00c0c93 	mul	r12, r3, r12
    19b0:	e0030391 	mul	r3, r1, r3
    19b4:	e097c00c 	adds	r12, r7, r12
    19b8:	22833801 	addcs	r3, r3, #65536	; 0x10000
    19bc:	e092280c 	adds	r2, r2, r12, lsl #16
    19c0:	e0a3382c 	adc	r3, r3, r12, lsr #16
    19c4:	e1590003 	cmp	r9, r3
    19c8:	3a000006 	bcc	19e8 <__udivdi3+0x358>
    19cc:	13a03000 	movne	r3, #0
    19d0:	03a03001 	moveq	r3, #1
    19d4:	e1520416 	cmp	r2, r6, lsl r4
    19d8:	93a06000 	movls	r6, #0
    19dc:	82036001 	andhi	r6, r3, #1
    19e0:	e3560000 	cmp	r6, #0
    19e4:	0affff6a 	beq	1794 <__udivdi3+0x104>
    19e8:	e2400001 	sub	r0, r0, #1
    19ec:	e3a06000 	mov	r6, #0
    19f0:	eaffff67 	b	1794 <__udivdi3+0x104>
    19f4:	e1a04314 	lsl	r4, r4, r3
    19f8:	e263b020 	rsb	r11, r3, #32
    19fc:	e1a02b35 	lsr	r2, r5, r11
    1a00:	e1a0bb36 	lsr	r11, r6, r11
    1a04:	e1a0a824 	lsr	r10, r4, #16
    1a08:	e1a0100a 	mov	r1, r10
    1a0c:	e1a00002 	mov	r0, r2
    1a10:	e18bb315 	orr	r11, r11, r5, lsl r3
    1a14:	e1a08316 	lsl	r8, r6, r3
    1a18:	e58d2004 	str	r2, [sp, #4]
    1a1c:	eb00003d 	bl	1b18 <__aeabi_uidiv>
    1a20:	e59d2004 	ldr	r2, [sp, #4]
    1a24:	e1a07000 	mov	r7, r0
    1a28:	e1a0100a 	mov	r1, r10
    1a2c:	e1a00002 	mov	r0, r2
    1a30:	eb000075 	bl	1c0c <__aeabi_uidivmod>
    1a34:	e1a09804 	lsl	r9, r4, #16
    1a38:	e1a09829 	lsr	r9, r9, #16
    1a3c:	e0000799 	mul	r0, r9, r7
    1a40:	e1a0382b 	lsr	r3, r11, #16
    1a44:	e1831801 	orr	r1, r3, r1, lsl #16
    1a48:	e1500001 	cmp	r0, r1
    1a4c:	9a000006 	bls	1a6c <__udivdi3+0x3dc>
    1a50:	e0911004 	adds	r1, r1, r4
    1a54:	e2473001 	sub	r3, r7, #1
    1a58:	2a00002c 	bcs	1b10 <__udivdi3+0x480>
    1a5c:	e1500001 	cmp	r0, r1
    1a60:	82477002 	subhi	r7, r7, #2
    1a64:	80811004 	addhi	r1, r1, r4
    1a68:	9a000028 	bls	1b10 <__udivdi3+0x480>
    1a6c:	e0605001 	rsb	r5, r0, r1
    1a70:	e1a00005 	mov	r0, r5
    1a74:	e1a0100a 	mov	r1, r10
    1a78:	eb000026 	bl	1b18 <__aeabi_uidiv>
    1a7c:	e1a0100a 	mov	r1, r10
    1a80:	e1a06000 	mov	r6, r0
    1a84:	e1a00005 	mov	r0, r5
    1a88:	eb00005f 	bl	1c0c <__aeabi_uidivmod>
    1a8c:	e0050699 	mul	r5, r9, r6
    1a90:	e1a0b80b 	lsl	r11, r11, #16
    1a94:	e1a0b82b 	lsr	r11, r11, #16
    1a98:	e18b1801 	orr	r1, r11, r1, lsl #16
    1a9c:	e1550001 	cmp	r5, r1
    1aa0:	9a000007 	bls	1ac4 <__udivdi3+0x434>
    1aa4:	e0911004 	adds	r1, r1, r4
    1aa8:	e2463001 	sub	r3, r6, #1
    1aac:	2a000003 	bcs	1ac0 <__udivdi3+0x430>
    1ab0:	e1550001 	cmp	r5, r1
    1ab4:	82466002 	subhi	r6, r6, #2
    1ab8:	80811004 	addhi	r1, r1, r4
    1abc:	8a000000 	bhi	1ac4 <__udivdi3+0x434>
    1ac0:	e1a06003 	mov	r6, r3
    1ac4:	e0655001 	rsb	r5, r5, r1
    1ac8:	e1866807 	orr	r6, r6, r7, lsl #16
    1acc:	eaffff53 	b	1820 <__udivdi3+0x190>
    1ad0:	e1a06003 	mov	r6, r3
    1ad4:	eaffff2c 	b	178c <__udivdi3+0xfc>
    1ad8:	e1a07003 	mov	r7, r3
    1adc:	eaffff62 	b	186c <__udivdi3+0x1dc>
    1ae0:	e1a05003 	mov	r5, r3
    1ae4:	eaffff74 	b	18bc <__udivdi3+0x22c>
    1ae8:	e1590001 	cmp	r9, r1
    1aec:	82422002 	subhi	r2, r2, #2
    1af0:	8081100a 	addhi	r1, r1, r10
    1af4:	8affffa4 	bhi	198c <__udivdi3+0x2fc>
    1af8:	eaffffa2 	b	1988 <__udivdi3+0x2f8>
    1afc:	e1500001 	cmp	r0, r1
    1b00:	824bb002 	subhi	r11, r11, #2
    1b04:	8081100a 	addhi	r1, r1, r10
    1b08:	8affff89 	bhi	1934 <__udivdi3+0x2a4>
    1b0c:	eaffff87 	b	1930 <__udivdi3+0x2a0>
    1b10:	e1a07003 	mov	r7, r3
    1b14:	eaffffd4 	b	1a6c <__udivdi3+0x3dc>

00001b18 <__aeabi_uidiv>:
    1b18:	e2512001 	subs	r2, r1, #1
    1b1c:	012fff1e 	bxeq	lr
    1b20:	3a000036 	bcc	1c00 <__aeabi_uidiv+0xe8>
    1b24:	e1500001 	cmp	r0, r1
    1b28:	9a000022 	bls	1bb8 <__aeabi_uidiv+0xa0>
    1b2c:	e1110002 	tst	r1, r2
    1b30:	0a000023 	beq	1bc4 <__aeabi_uidiv+0xac>
    1b34:	e311020e 	tst	r1, #-536870912	; 0xe0000000
    1b38:	01a01181 	lsleq	r1, r1, #3
    1b3c:	03a03008 	moveq	r3, #8
    1b40:	13a03001 	movne	r3, #1
    1b44:	e3510201 	cmp	r1, #268435456	; 0x10000000
    1b48:	31510000 	cmpcc	r1, r0
    1b4c:	31a01201 	lslcc	r1, r1, #4
    1b50:	31a03203 	lslcc	r3, r3, #4
    1b54:	3afffffa 	bcc	1b44 <__aeabi_uidiv+0x2c>
    1b58:	e3510102 	cmp	r1, #-2147483648	; 0x80000000
    1b5c:	31510000 	cmpcc	r1, r0
    1b60:	31a01081 	lslcc	r1, r1, #1
    1b64:	31a03083 	lslcc	r3, r3, #1
    1b68:	3afffffa 	bcc	1b58 <__aeabi_uidiv+0x40>
    1b6c:	e3a02000 	mov	r2, #0
    1b70:	e1500001 	cmp	r0, r1
    1b74:	20400001 	subcs	r0, r0, r1
    1b78:	21822003 	orrcs	r2, r2, r3
    1b7c:	e15000a1 	cmp	r0, r1, lsr #1
    1b80:	204000a1 	subcs	r0, r0, r1, lsr #1
    1b84:	218220a3 	orrcs	r2, r2, r3, lsr #1
    1b88:	e1500121 	cmp	r0, r1, lsr #2
    1b8c:	20400121 	subcs	r0, r0, r1, lsr #2
    1b90:	21822123 	orrcs	r2, r2, r3, lsr #2
    1b94:	e15001a1 	cmp	r0, r1, lsr #3
    1b98:	204001a1 	subcs	r0, r0, r1, lsr #3
    1b9c:	218221a3 	orrcs	r2, r2, r3, lsr #3
    1ba0:	e3500000 	cmp	r0, #0
    1ba4:	11b03223 	lsrsne	r3, r3, #4
    1ba8:	11a01221 	lsrne	r1, r1, #4
    1bac:	1affffef 	bne	1b70 <__aeabi_uidiv+0x58>
    1bb0:	e1a00002 	mov	r0, r2
    1bb4:	e12fff1e 	bx	lr
    1bb8:	03a00001 	moveq	r0, #1
    1bbc:	13a00000 	movne	r0, #0
    1bc0:	e12fff1e 	bx	lr
    1bc4:	e3510801 	cmp	r1, #65536	; 0x10000
    1bc8:	21a01821 	lsrcs	r1, r1, #16
    1bcc:	23a02010 	movcs	r2, #16
    1bd0:	33a02000 	movcc	r2, #0
    1bd4:	e3510c01 	cmp	r1, #256	; 0x100
    1bd8:	21a01421 	lsrcs	r1, r1, #8
    1bdc:	22822008 	addcs	r2, r2, #8
    1be0:	e3510010 	cmp	r1, #16
    1be4:	21a01221 	lsrcs	r1, r1, #4
    1be8:	22822004 	addcs	r2, r2, #4
    1bec:	e3510004 	cmp	r1, #4
    1bf0:	82822003 	addhi	r2, r2, #3
    1bf4:	908220a1 	addls	r2, r2, r1, lsr #1
    1bf8:	e1a00230 	lsr	r0, r0, r2
    1bfc:	e12fff1e 	bx	lr
    1c00:	e3500000 	cmp	r0, #0
    1c04:	13e00000 	mvnne	r0, #0
    1c08:	eafffac1 	b	714 <__aeabi_idiv0>

00001c0c <__aeabi_uidivmod>:
    1c0c:	e3510000 	cmp	r1, #0
    1c10:	0afffffa 	beq	1c00 <__aeabi_uidiv+0xe8>
    1c14:	e92d4003 	push	{r0, r1, lr}
    1c18:	ebffffbe 	bl	1b18 <__aeabi_uidiv>
    1c1c:	e8bd4006 	pop	{r1, r2, lr}
    1c20:	e0030092 	mul	r3, r2, r0
    1c24:	e0411003 	sub	r1, r1, r3
    1c28:	e12fff1e 	bx	lr

00001c2c <__clzsi2>:
    1c2c:	e3a0101c 	mov	r1, #28
    1c30:	e3500801 	cmp	r0, #65536	; 0x10000
    1c34:	21a00820 	lsrcs	r0, r0, #16
    1c38:	22411010 	subcs	r1, r1, #16
    1c3c:	e3500c01 	cmp	r0, #256	; 0x100
    1c40:	21a00420 	lsrcs	r0, r0, #8
    1c44:	22411008 	subcs	r1, r1, #8
    1c48:	e3500010 	cmp	r0, #16
    1c4c:	21a00220 	lsrcs	r0, r0, #4
    1c50:	22411004 	subcs	r1, r1, #4
    1c54:	e28f2008 	add	r2, pc, #8
    1c58:	e7d20000 	ldrb	r0, [r2, r0]
    1c5c:	e0800001 	add	r0, r0, r1
    1c60:	e12fff1e 	bx	lr
    1c64:	02020304 	.word	0x02020304
    1c68:	01010101 	.word	0x01010101
	...

00001c74 <atexit>:
    1c74:	e1a01000 	mov	r1, r0
    1c78:	e3a00000 	mov	r0, #0
    1c7c:	e92d4008 	push	{r3, lr}
    1c80:	e1a02000 	mov	r2, r0
    1c84:	e1a03000 	mov	r3, r0
    1c88:	eb000ea6 	bl	5728 <__register_exitproc>
    1c8c:	e8bd4008 	pop	{r3, lr}
    1c90:	e12fff1e 	bx	lr

00001c94 <clock>:
    1c94:	e52de004 	push	{lr}		; (str lr, [sp, #-4]!)
    1c98:	e59f303c 	ldr	r3, [pc, #60]	; 1cdc <clock+0x48>
    1c9c:	e24dd014 	sub	sp, sp, #20
    1ca0:	e1a0100d 	mov	r1, sp
    1ca4:	e5930000 	ldr	r0, [r3]
    1ca8:	eb000053 	bl	1dfc <_times_r>
    1cac:	e3700001 	cmn	r0, #1
    1cb0:	0a000006 	beq	1cd0 <clock+0x3c>
    1cb4:	e59d3000 	ldr	r3, [sp]
    1cb8:	e59d0004 	ldr	r0, [sp, #4]
    1cbc:	e0800003 	add	r0, r0, r3
    1cc0:	e59d3008 	ldr	r3, [sp, #8]
    1cc4:	e0800003 	add	r0, r0, r3
    1cc8:	e59d300c 	ldr	r3, [sp, #12]
    1ccc:	e0800003 	add	r0, r0, r3
    1cd0:	e28dd014 	add	sp, sp, #20
    1cd4:	e49de004 	pop	{lr}		; (ldr lr, [sp], #4)
    1cd8:	e12fff1e 	bx	lr
    1cdc:	00014150 	.word	0x00014150

00001ce0 <exit>:
    1ce0:	e92d4008 	push	{r3, lr}
    1ce4:	e3a01000 	mov	r1, #0
    1ce8:	e1a04000 	mov	r4, r0
    1cec:	eb000eca 	bl	581c <__call_exitprocs>
    1cf0:	e59f3018 	ldr	r3, [pc, #24]	; 1d10 <exit+0x30>
    1cf4:	e5930000 	ldr	r0, [r3]
    1cf8:	e590303c 	ldr	r3, [r0, #60]	; 0x3c
    1cfc:	e3530000 	cmp	r3, #0
    1d00:	11a0e00f 	movne	lr, pc
    1d04:	112fff13 	bxne	r3
    1d08:	e1a00004 	mov	r0, r4
    1d0c:	eb004620 	bl	13594 <_exit>
    1d10:	00013d58 	.word	0x00013d58

00001d14 <_printf_r>:
    1d14:	e92d000e 	push	{r1, r2, r3}
    1d18:	e52de004 	push	{lr}		; (str lr, [sp, #-4]!)
    1d1c:	e24dd008 	sub	sp, sp, #8
    1d20:	e28dc010 	add	r12, sp, #16
    1d24:	e5901008 	ldr	r1, [r0, #8]
    1d28:	e59d200c 	ldr	r2, [sp, #12]
    1d2c:	e1a0300c 	mov	r3, r12
    1d30:	e58dc004 	str	r12, [sp, #4]
    1d34:	eb000035 	bl	1e10 <_vfprintf_r>
    1d38:	e28dd008 	add	sp, sp, #8
    1d3c:	e49de004 	pop	{lr}		; (ldr lr, [sp], #4)
    1d40:	e28dd00c 	add	sp, sp, #12
    1d44:	e12fff1e 	bx	lr

00001d48 <printf>:
    1d48:	e92d000f 	push	{r0, r1, r2, r3}
    1d4c:	e52de004 	push	{lr}		; (str lr, [sp, #-4]!)
    1d50:	e59f302c 	ldr	r3, [pc, #44]	; 1d84 <printf+0x3c>
    1d54:	e24dd00c 	sub	sp, sp, #12
    1d58:	e5930000 	ldr	r0, [r3]
    1d5c:	e28dc014 	add	r12, sp, #20
    1d60:	e5901008 	ldr	r1, [r0, #8]
    1d64:	e59d2010 	ldr	r2, [sp, #16]
    1d68:	e1a0300c 	mov	r3, r12
    1d6c:	e58dc004 	str	r12, [sp, #4]
    1d70:	eb000026 	bl	1e10 <_vfprintf_r>
    1d74:	e28dd00c 	add	sp, sp, #12
    1d78:	e49de004 	pop	{lr}		; (ldr lr, [sp], #4)
    1d7c:	e28dd010 	add	sp, sp, #16
    1d80:	e12fff1e 	bx	lr
    1d84:	00014150 	.word	0x00014150

00001d88 <scanf>:
    1d88:	e92d000f 	push	{r0, r1, r2, r3}
    1d8c:	e52de004 	push	{lr}		; (str lr, [sp, #-4]!)
    1d90:	e59f302c 	ldr	r3, [pc, #44]	; 1dc4 <scanf+0x3c>
    1d94:	e24dd00c 	sub	sp, sp, #12
    1d98:	e5930000 	ldr	r0, [r3]
    1d9c:	e28dc014 	add	r12, sp, #20
    1da0:	e5901004 	ldr	r1, [r0, #4]
    1da4:	e59d2010 	ldr	r2, [sp, #16]
    1da8:	e1a0300c 	mov	r3, r12
    1dac:	e58dc004 	str	r12, [sp, #4]
    1db0:	eb000876 	bl	3f90 <__svfscanf_r>
    1db4:	e28dd00c 	add	sp, sp, #12
    1db8:	e49de004 	pop	{lr}		; (ldr lr, [sp], #4)
    1dbc:	e28dd010 	add	sp, sp, #16
    1dc0:	e12fff1e 	bx	lr
    1dc4:	00014150 	.word	0x00014150

00001dc8 <_scanf_r>:
    1dc8:	e92d000e 	push	{r1, r2, r3}
    1dcc:	e52de004 	push	{lr}		; (str lr, [sp, #-4]!)
    1dd0:	e24dd008 	sub	sp, sp, #8
    1dd4:	e28dc010 	add	r12, sp, #16
    1dd8:	e5901004 	ldr	r1, [r0, #4]
    1ddc:	e59d200c 	ldr	r2, [sp, #12]
    1de0:	e1a0300c 	mov	r3, r12
    1de4:	e58dc004 	str	r12, [sp, #4]
    1de8:	eb000868 	bl	3f90 <__svfscanf_r>
    1dec:	e28dd008 	add	sp, sp, #8
    1df0:	e49de004 	pop	{lr}		; (ldr lr, [sp], #4)
    1df4:	e28dd00c 	add	sp, sp, #12
    1df8:	e12fff1e 	bx	lr

00001dfc <_times_r>:
    1dfc:	e92d4008 	push	{r3, lr}
    1e00:	e1a00001 	mov	r0, r1
    1e04:	eb00464e 	bl	13744 <_times>
    1e08:	e8bd4008 	pop	{r3, lr}
    1e0c:	e12fff1e 	bx	lr

00001e10 <_vfprintf_r>:
    1e10:	e92d4ff0 	push	{r4, r5, r6, r7, r8, r9, r10, r11, lr}
    1e14:	e24ddd15 	sub	sp, sp, #1344	; 0x540
    1e18:	e24dd004 	sub	sp, sp, #4
    1e1c:	e1a09001 	mov	r9, r1
    1e20:	e1a04002 	mov	r4, r2
    1e24:	e58d303c 	str	r3, [sp, #60]	; 0x3c
    1e28:	e58d002c 	str	r0, [sp, #44]	; 0x2c
    1e2c:	eb001848 	bl	7f54 <_localeconv_r>
    1e30:	e5900000 	ldr	r0, [r0]
    1e34:	e58d0058 	str	r0, [sp, #88]	; 0x58
    1e38:	eb002116 	bl	a298 <strlen>
    1e3c:	e59d602c 	ldr	r6, [sp, #44]	; 0x2c
    1e40:	e3a0b000 	mov	r11, #0
    1e44:	e3a0c000 	mov	r12, #0
    1e48:	e3560000 	cmp	r6, #0
    1e4c:	e58d0064 	str	r0, [sp, #100]	; 0x64
    1e50:	e58db068 	str	r11, [sp, #104]	; 0x68
    1e54:	e58dc06c 	str	r12, [sp, #108]	; 0x6c
    1e58:	0a000002 	beq	1e68 <_vfprintf_r+0x58>
    1e5c:	e5963038 	ldr	r3, [r6, #56]	; 0x38
    1e60:	e3530000 	cmp	r3, #0
    1e64:	0a000101 	beq	2270 <_vfprintf_r+0x460>
    1e68:	e1d980bc 	ldrh	r8, [r9, #12]
    1e6c:	e3180a02 	tst	r8, #8192	; 0x2000
    1e70:	05993064 	ldreq	r3, [r9, #100]	; 0x64
    1e74:	03888a02 	orreq	r8, r8, #8192	; 0x2000
    1e78:	03c33a02 	biceq	r3, r3, #8192	; 0x2000
    1e7c:	01c980bc 	strheq	r8, [r9, #12]
    1e80:	05893064 	streq	r3, [r9, #100]	; 0x64
    1e84:	e3180008 	tst	r8, #8
    1e88:	0a0000aa 	beq	2138 <_vfprintf_r+0x328>
    1e8c:	e5993010 	ldr	r3, [r9, #16]
    1e90:	e3530000 	cmp	r3, #0
    1e94:	0a0000a7 	beq	2138 <_vfprintf_r+0x328>
    1e98:	e208301a 	and	r3, r8, #26
    1e9c:	e353000a 	cmp	r3, #10
    1ea0:	0a0000c4 	beq	21b8 <_vfprintf_r+0x3a8>
    1ea4:	e28d60d8 	add	r6, sp, #216	; 0xd8
    1ea8:	e28d70d7 	add	r7, sp, #215	; 0xd7
    1eac:	e3a03000 	mov	r3, #0
    1eb0:	e28dbd05 	add	r11, sp, #320	; 0x140
    1eb4:	e58d4028 	str	r4, [sp, #40]	; 0x28
    1eb8:	e0674006 	rsb	r4, r7, r6
    1ebc:	e58d3044 	str	r3, [sp, #68]	; 0x44
    1ec0:	e58d6054 	str	r6, [sp, #84]	; 0x54
    1ec4:	e58d705c 	str	r7, [sp, #92]	; 0x5c
    1ec8:	e58db0a4 	str	r11, [sp, #164]	; 0xa4
    1ecc:	e58d30ac 	str	r3, [sp, #172]	; 0xac
    1ed0:	e58d30a8 	str	r3, [sp, #168]	; 0xa8
    1ed4:	e58d3074 	str	r3, [sp, #116]	; 0x74
    1ed8:	e58d3070 	str	r3, [sp, #112]	; 0x70
    1edc:	e58d3034 	str	r3, [sp, #52]	; 0x34
    1ee0:	e58d407c 	str	r4, [sp, #124]	; 0x7c
    1ee4:	e58d901c 	str	r9, [sp, #28]
    1ee8:	e1a0c00b 	mov	r12, r11
    1eec:	e1a0500b 	mov	r5, r11
    1ef0:	e59d6028 	ldr	r6, [sp, #40]	; 0x28
    1ef4:	e5d63000 	ldrb	r3, [r6]
    1ef8:	e3530025 	cmp	r3, #37	; 0x25
    1efc:	13530000 	cmpne	r3, #0
    1f00:	0a0000dd 	beq	227c <_vfprintf_r+0x46c>
    1f04:	e2863001 	add	r3, r6, #1
    1f08:	e1a07003 	mov	r7, r3
    1f0c:	e5d33000 	ldrb	r3, [r3]
    1f10:	e3530025 	cmp	r3, #37	; 0x25
    1f14:	13530000 	cmpne	r3, #0
    1f18:	e2873001 	add	r3, r7, #1
    1f1c:	1afffff9 	bne	1f08 <_vfprintf_r+0xf8>
    1f20:	e59dc028 	ldr	r12, [sp, #40]	; 0x28
    1f24:	e057800c 	subs	r8, r7, r12
    1f28:	0a00000d 	beq	1f64 <_vfprintf_r+0x154>
    1f2c:	e28d40a8 	add	r4, sp, #168	; 0xa8
    1f30:	e8940050 	ldm	r4, {r4, r6}
    1f34:	e2844001 	add	r4, r4, #1
    1f38:	e0866008 	add	r6, r6, r8
    1f3c:	e3540007 	cmp	r4, #7
    1f40:	e585c000 	str	r12, [r5]
    1f44:	e5858004 	str	r8, [r5, #4]
    1f48:	e58d60ac 	str	r6, [sp, #172]	; 0xac
    1f4c:	e58d40a8 	str	r4, [sp, #168]	; 0xa8
    1f50:	d2855008 	addle	r5, r5, #8
    1f54:	ca000084 	bgt	216c <_vfprintf_r+0x35c>
    1f58:	e59d4034 	ldr	r4, [sp, #52]	; 0x34
    1f5c:	e0844008 	add	r4, r4, r8
    1f60:	e58d4034 	str	r4, [sp, #52]	; 0x34
    1f64:	e5d73000 	ldrb	r3, [r7]
    1f68:	e3530000 	cmp	r3, #0
    1f6c:	0a000699 	beq	39d8 <_vfprintf_r+0x1bc8>
    1f70:	e2876001 	add	r6, r7, #1
    1f74:	e3a03000 	mov	r3, #0
    1f78:	e58d6028 	str	r6, [sp, #40]	; 0x28
    1f7c:	e5d78001 	ldrb	r8, [r7, #1]
    1f80:	e58d3030 	str	r3, [sp, #48]	; 0x30
    1f84:	e5cd3083 	strb	r3, [sp, #131]	; 0x83
    1f88:	e58d3018 	str	r3, [sp, #24]
    1f8c:	e3e04000 	mvn	r4, #0
    1f90:	e3a01020 	mov	r1, #32
    1f94:	e3a0202b 	mov	r2, #43	; 0x2b
    1f98:	e1a03006 	mov	r3, r6
    1f9c:	e2833001 	add	r3, r3, #1
    1fa0:	e2480020 	sub	r0, r8, #32
    1fa4:	e3500058 	cmp	r0, #88	; 0x58
    1fa8:	979ff100 	ldrls	pc, [pc, r0, lsl #2]
    1fac:	ea000224 	b	2844 <_vfprintf_r+0xa34>
    1fb0:	00002880 	.word	0x00002880
    1fb4:	00002844 	.word	0x00002844
    1fb8:	00002844 	.word	0x00002844
    1fbc:	00002898 	.word	0x00002898
    1fc0:	00002844 	.word	0x00002844
    1fc4:	00002844 	.word	0x00002844
    1fc8:	00002844 	.word	0x00002844
    1fcc:	00002844 	.word	0x00002844
    1fd0:	00002844 	.word	0x00002844
    1fd4:	00002844 	.word	0x00002844
    1fd8:	000028ac 	.word	0x000028ac
    1fdc:	00002284 	.word	0x00002284
    1fe0:	00002844 	.word	0x00002844
    1fe4:	00002124 	.word	0x00002124
    1fe8:	00002290 	.word	0x00002290
    1fec:	00002844 	.word	0x00002844
    1ff0:	000022dc 	.word	0x000022dc
    1ff4:	000022f0 	.word	0x000022f0
    1ff8:	000022f0 	.word	0x000022f0
    1ffc:	000022f0 	.word	0x000022f0
    2000:	000022f0 	.word	0x000022f0
    2004:	000022f0 	.word	0x000022f0
    2008:	000022f0 	.word	0x000022f0
    200c:	000022f0 	.word	0x000022f0
    2010:	000022f0 	.word	0x000022f0
    2014:	000022f0 	.word	0x000022f0
    2018:	00002844 	.word	0x00002844
    201c:	00002844 	.word	0x00002844
    2020:	00002844 	.word	0x00002844
    2024:	00002844 	.word	0x00002844
    2028:	00002844 	.word	0x00002844
    202c:	00002844 	.word	0x00002844
    2030:	00002844 	.word	0x00002844
    2034:	00002844 	.word	0x00002844
    2038:	00002844 	.word	0x00002844
    203c:	00002844 	.word	0x00002844
    2040:	00002320 	.word	0x00002320
    2044:	0000255c 	.word	0x0000255c
    2048:	00002844 	.word	0x00002844
    204c:	0000255c 	.word	0x0000255c
    2050:	00002844 	.word	0x00002844
    2054:	00002844 	.word	0x00002844
    2058:	00002844 	.word	0x00002844
    205c:	00002844 	.word	0x00002844
    2060:	0000260c 	.word	0x0000260c
    2064:	00002844 	.word	0x00002844
    2068:	00002844 	.word	0x00002844
    206c:	00002620 	.word	0x00002620
    2070:	00002844 	.word	0x00002844
    2074:	00002844 	.word	0x00002844
    2078:	00002844 	.word	0x00002844
    207c:	00002844 	.word	0x00002844
    2080:	00002844 	.word	0x00002844
    2084:	00002670 	.word	0x00002670
    2088:	00002844 	.word	0x00002844
    208c:	00002844 	.word	0x00002844
    2090:	000026b8 	.word	0x000026b8
    2094:	00002844 	.word	0x00002844
    2098:	00002844 	.word	0x00002844
    209c:	00002844 	.word	0x00002844
    20a0:	00002844 	.word	0x00002844
    20a4:	00002844 	.word	0x00002844
    20a8:	00002844 	.word	0x00002844
    20ac:	00002844 	.word	0x00002844
    20b0:	00002844 	.word	0x00002844
    20b4:	00002844 	.word	0x00002844
    20b8:	00002844 	.word	0x00002844
    20bc:	000029b4 	.word	0x000029b4
    20c0:	0000295c 	.word	0x0000295c
    20c4:	0000255c 	.word	0x0000255c
    20c8:	0000255c 	.word	0x0000255c
    20cc:	0000255c 	.word	0x0000255c
    20d0:	000029a0 	.word	0x000029a0
    20d4:	0000295c 	.word	0x0000295c
    20d8:	00002844 	.word	0x00002844
    20dc:	00002844 	.word	0x00002844
    20e0:	0000279c 	.word	0x0000279c
    20e4:	00002844 	.word	0x00002844
    20e8:	000027cc 	.word	0x000027cc
    20ec:	00002800 	.word	0x00002800
    20f0:	000029f0 	.word	0x000029f0
    20f4:	00002708 	.word	0x00002708
    20f8:	00002844 	.word	0x00002844
    20fc:	0000271c 	.word	0x0000271c
    2100:	00002844 	.word	0x00002844
    2104:	000028d4 	.word	0x000028d4
    2108:	00002844 	.word	0x00002844
    210c:	00002844 	.word	0x00002844
    2110:	0000291c 	.word	0x0000291c
    2114:	e59d6030 	ldr	r6, [sp, #48]	; 0x30
    2118:	e2666000 	rsb	r6, r6, #0
    211c:	e58d6030 	str	r6, [sp, #48]	; 0x30
    2120:	e58d003c 	str	r0, [sp, #60]	; 0x3c
    2124:	e59d7018 	ldr	r7, [sp, #24]
    2128:	e3877004 	orr	r7, r7, #4
    212c:	e58d7018 	str	r7, [sp, #24]
    2130:	e5d38000 	ldrb	r8, [r3]
    2134:	eaffff98 	b	1f9c <_vfprintf_r+0x18c>
    2138:	e59d002c 	ldr	r0, [sp, #44]	; 0x2c
    213c:	e1a01009 	mov	r1, r9
    2140:	eb000d2a 	bl	55f0 <__swsetup_r>
    2144:	e3500000 	cmp	r0, #0
    2148:	01d980bc 	ldrheq	r8, [r9, #12]
    214c:	0affff51 	beq	1e98 <_vfprintf_r+0x88>
    2150:	e3e0c000 	mvn	r12, #0
    2154:	e58dc034 	str	r12, [sp, #52]	; 0x34
    2158:	e59d0034 	ldr	r0, [sp, #52]	; 0x34
    215c:	e28ddf51 	add	sp, sp, #324	; 0x144
    2160:	e28ddb01 	add	sp, sp, #1024	; 0x400
    2164:	e8bd4ff0 	pop	{r4, r5, r6, r7, r8, r9, r10, r11, lr}
    2168:	e12fff1e 	bx	lr
    216c:	e59d002c 	ldr	r0, [sp, #44]	; 0x2c
    2170:	e59d101c 	ldr	r1, [sp, #28]
    2174:	e28d20a4 	add	r2, sp, #164	; 0xa4
    2178:	eb0030db 	bl	e4ec <__sprint_r>
    217c:	e3500000 	cmp	r0, #0
    2180:	1a000007 	bne	21a4 <_vfprintf_r+0x394>
    2184:	e28d5d05 	add	r5, sp, #320	; 0x140
    2188:	eaffff72 	b	1f58 <_vfprintf_r+0x148>
    218c:	e59d002c 	ldr	r0, [sp, #44]	; 0x2c
    2190:	e59d101c 	ldr	r1, [sp, #28]
    2194:	e28d20a4 	add	r2, sp, #164	; 0xa4
    2198:	eb0030d3 	bl	e4ec <__sprint_r>
    219c:	e3500000 	cmp	r0, #0
    21a0:	0a0002d2 	beq	2cf0 <_vfprintf_r+0xee0>
    21a4:	e59d901c 	ldr	r9, [sp, #28]
    21a8:	e1d930bc 	ldrh	r3, [r9, #12]
    21ac:	e3130040 	tst	r3, #64	; 0x40
    21b0:	1affffe6 	bne	2150 <_vfprintf_r+0x340>
    21b4:	eaffffe7 	b	2158 <_vfprintf_r+0x348>
    21b8:	e1d9c0be 	ldrh	r12, [r9, #14]
    21bc:	e31c0902 	tst	r12, #32768	; 0x8000
    21c0:	1affff37 	bne	1ea4 <_vfprintf_r+0x94>
    21c4:	e1a02004 	mov	r2, r4
    21c8:	e59f4fb0 	ldr	r4, [pc, #4016]	; 3180 <_vfprintf_r+0x1370>
    21cc:	e28dbd15 	add	r11, sp, #1344	; 0x540
    21d0:	e3c88002 	bic	r8, r8, #2
    21d4:	e18b80b4 	strh	r8, [r11, r4]
    21d8:	e5997064 	ldr	r7, [r9, #100]	; 0x64
    21dc:	e599601c 	ldr	r6, [r9, #28]
    21e0:	e599a024 	ldr	r10, [r9, #36]	; 0x24
    21e4:	e2844002 	add	r4, r4, #2
    21e8:	e3a0eb01 	mov	lr, #1024	; 0x400
    21ec:	e28d5d05 	add	r5, sp, #320	; 0x140
    21f0:	e18bc0b4 	strh	r12, [r11, r4]
    21f4:	e59d002c 	ldr	r0, [sp, #44]	; 0x2c
    21f8:	e3a0c000 	mov	r12, #0
    21fc:	e28d10d8 	add	r1, sp, #216	; 0xd8
    2200:	e59d303c 	ldr	r3, [sp, #60]	; 0x3c
    2204:	e58d713c 	str	r7, [sp, #316]	; 0x13c
    2208:	e58d60f4 	str	r6, [sp, #244]	; 0xf4
    220c:	e58da0fc 	str	r10, [sp, #252]	; 0xfc
    2210:	e58d50d8 	str	r5, [sp, #216]	; 0xd8
    2214:	e58d50e8 	str	r5, [sp, #232]	; 0xe8
    2218:	e58de0e0 	str	lr, [sp, #224]	; 0xe0
    221c:	e58de0ec 	str	lr, [sp, #236]	; 0xec
    2220:	e58dc0f0 	str	r12, [sp, #240]	; 0xf0
    2224:	ebfffef9 	bl	1e10 <_vfprintf_r>
    2228:	e3500000 	cmp	r0, #0
    222c:	e58d0034 	str	r0, [sp, #52]	; 0x34
    2230:	ba000006 	blt	2250 <_vfprintf_r+0x440>
    2234:	e59d002c 	ldr	r0, [sp, #44]	; 0x2c
    2238:	e28d10d8 	add	r1, sp, #216	; 0xd8
    223c:	eb001409 	bl	7268 <_fflush_r>
    2240:	e59dc034 	ldr	r12, [sp, #52]	; 0x34
    2244:	e3500000 	cmp	r0, #0
    2248:	13e0c000 	mvnne	r12, #0
    224c:	e58dc034 	str	r12, [sp, #52]	; 0x34
    2250:	e59f3f28 	ldr	r3, [pc, #3880]	; 3180 <_vfprintf_r+0x1370>
    2254:	e28d0d15 	add	r0, sp, #1344	; 0x540
    2258:	e19030b3 	ldrh	r3, [r0, r3]
    225c:	e3130040 	tst	r3, #64	; 0x40
    2260:	11d930bc 	ldrhne	r3, [r9, #12]
    2264:	13833040 	orrne	r3, r3, #64	; 0x40
    2268:	11c930bc 	strhne	r3, [r9, #12]
    226c:	eaffffb9 	b	2158 <_vfprintf_r+0x348>
    2270:	e1a00006 	mov	r0, r6
    2274:	eb0014d5 	bl	75d0 <__sinit>
    2278:	eafffefa 	b	1e68 <_vfprintf_r+0x58>
    227c:	e59d7028 	ldr	r7, [sp, #40]	; 0x28
    2280:	eaffff37 	b	1f64 <_vfprintf_r+0x154>
    2284:	e5cd2083 	strb	r2, [sp, #131]	; 0x83
    2288:	e5d38000 	ldrb	r8, [r3]
    228c:	eaffff42 	b	1f9c <_vfprintf_r+0x18c>
    2290:	e1a0c003 	mov	r12, r3
    2294:	e4dc8001 	ldrb	r8, [r12], #1
    2298:	e358002a 	cmp	r8, #42	; 0x2a
    229c:	0a000717 	beq	3f00 <_vfprintf_r+0x20f0>
    22a0:	e2480030 	sub	r0, r8, #48	; 0x30
    22a4:	e3500009 	cmp	r0, #9
    22a8:	81a0300c 	movhi	r3, r12
    22ac:	83a04000 	movhi	r4, #0
    22b0:	8affff3a 	bhi	1fa0 <_vfprintf_r+0x190>
    22b4:	e3a04000 	mov	r4, #0
    22b8:	e4dc8001 	ldrb	r8, [r12], #1
    22bc:	e0844104 	add	r4, r4, r4, lsl #2
    22c0:	e0804084 	add	r4, r0, r4, lsl #1
    22c4:	e2480030 	sub	r0, r8, #48	; 0x30
    22c8:	e3500009 	cmp	r0, #9
    22cc:	e1a0300c 	mov	r3, r12
    22d0:	9afffff8 	bls	22b8 <_vfprintf_r+0x4a8>
    22d4:	e1844fc4 	orr	r4, r4, r4, asr #31
    22d8:	eaffff30 	b	1fa0 <_vfprintf_r+0x190>
    22dc:	e59dc018 	ldr	r12, [sp, #24]
    22e0:	e38cc080 	orr	r12, r12, #128	; 0x80
    22e4:	e58dc018 	str	r12, [sp, #24]
    22e8:	e5d38000 	ldrb	r8, [r3]
    22ec:	eaffff2a 	b	1f9c <_vfprintf_r+0x18c>
    22f0:	e1a0c003 	mov	r12, r3
    22f4:	e3a00000 	mov	r0, #0
    22f8:	e2483030 	sub	r3, r8, #48	; 0x30
    22fc:	e4dc8001 	ldrb	r8, [r12], #1
    2300:	e2486030 	sub	r6, r8, #48	; 0x30
    2304:	e0800100 	add	r0, r0, r0, lsl #2
    2308:	e3560009 	cmp	r6, #9
    230c:	e0830080 	add	r0, r3, r0, lsl #1
    2310:	e1a0300c 	mov	r3, r12
    2314:	9afffff7 	bls	22f8 <_vfprintf_r+0x4e8>
    2318:	e58d0030 	str	r0, [sp, #48]	; 0x30
    231c:	eaffff1f 	b	1fa0 <_vfprintf_r+0x190>
    2320:	e59d6018 	ldr	r6, [sp, #24]
    2324:	e3866010 	orr	r6, r6, #16
    2328:	e58d6018 	str	r6, [sp, #24]
    232c:	e59d7018 	ldr	r7, [sp, #24]
    2330:	e3170020 	tst	r7, #32
    2334:	e58d3028 	str	r3, [sp, #40]	; 0x28
    2338:	0a00018b 	beq	296c <_vfprintf_r+0xb5c>
    233c:	e59db03c 	ldr	r11, [sp, #60]	; 0x3c
    2340:	e28b1007 	add	r1, r11, #7
    2344:	e3c11007 	bic	r1, r1, #7
    2348:	e891000c 	ldm	r1, {r2, r3}
    234c:	e2811008 	add	r1, r1, #8
    2350:	e58d103c 	str	r1, [sp, #60]	; 0x3c
    2354:	e1a06002 	mov	r6, r2
    2358:	e1a07003 	mov	r7, r3
    235c:	e3520000 	cmp	r2, #0
    2360:	e2d30000 	sbcs	r0, r3, #0
    2364:	ba0004ae 	blt	3624 <_vfprintf_r+0x1814>
    2368:	e1961007 	orrs	r1, r6, r7
    236c:	03a02000 	moveq	r2, #0
    2370:	13a02001 	movne	r2, #1
    2374:	e3a03001 	mov	r3, #1
    2378:	e3540000 	cmp	r4, #0
    237c:	a59dc018 	ldrge	r12, [sp, #24]
    2380:	a3ccc080 	bicge	r12, r12, #128	; 0x80
    2384:	a58dc018 	strge	r12, [sp, #24]
    2388:	e3540000 	cmp	r4, #0
    238c:	13822001 	orrne	r2, r2, #1
    2390:	e3520000 	cmp	r2, #0
    2394:	0a0002a4 	beq	2e2c <_vfprintf_r+0x101c>
    2398:	e3530001 	cmp	r3, #1
    239c:	0a000397 	beq	3200 <_vfprintf_r+0x13f0>
    23a0:	e3530002 	cmp	r3, #2
    23a4:	e59dc05c 	ldr	r12, [sp, #92]	; 0x5c
    23a8:	0a000380 	beq	31b0 <_vfprintf_r+0x13a0>
    23ac:	e3a00007 	mov	r0, #7
    23b0:	e1a0a1a6 	lsr	r10, r6, #3
    23b4:	e18aae87 	orr	r10, r10, r7, lsl #29
    23b8:	e0062000 	and	r2, r6, r0
    23bc:	e1a031a7 	lsr	r3, r7, #3
    23c0:	e1a07003 	mov	r7, r3
    23c4:	e1a0600a 	mov	r6, r10
    23c8:	e2822030 	add	r2, r2, #48	; 0x30
    23cc:	e20220ff 	and	r2, r2, #255	; 0xff
    23d0:	e196b007 	orrs	r11, r6, r7
    23d4:	e1a0300c 	mov	r3, r12
    23d8:	e5cc2000 	strb	r2, [r12]
    23dc:	e24cc001 	sub	r12, r12, #1
    23e0:	1afffff2 	bne	23b0 <_vfprintf_r+0x5a0>
    23e4:	e59d6018 	ldr	r6, [sp, #24]
    23e8:	e3160001 	tst	r6, #1
    23ec:	e58d304c 	str	r3, [sp, #76]	; 0x4c
    23f0:	1a00047f 	bne	35f4 <_vfprintf_r+0x17e4>
    23f4:	e59d7054 	ldr	r7, [sp, #84]	; 0x54
    23f8:	e0637007 	rsb	r7, r3, r7
    23fc:	e58d7038 	str	r7, [sp, #56]	; 0x38
    2400:	e59d7038 	ldr	r7, [sp, #56]	; 0x38
    2404:	e3a0b000 	mov	r11, #0
    2408:	e1570004 	cmp	r7, r4
    240c:	b1a07004 	movlt	r7, r4
    2410:	e58d7020 	str	r7, [sp, #32]
    2414:	e5dd3083 	ldrb	r3, [sp, #131]	; 0x83
    2418:	e58d4040 	str	r4, [sp, #64]	; 0x40
    241c:	e58db060 	str	r11, [sp, #96]	; 0x60
    2420:	e3530000 	cmp	r3, #0
    2424:	0a000002 	beq	2434 <_vfprintf_r+0x624>
    2428:	e59d7020 	ldr	r7, [sp, #32]
    242c:	e2877001 	add	r7, r7, #1
    2430:	e58d7020 	str	r7, [sp, #32]
    2434:	e59db018 	ldr	r11, [sp, #24]
    2438:	e21bb002 	ands	r11, r11, #2
    243c:	159dc020 	ldrne	r12, [sp, #32]
    2440:	e59d3018 	ldr	r3, [sp, #24]
    2444:	128cc002 	addne	r12, r12, #2
    2448:	158dc020 	strne	r12, [sp, #32]
    244c:	e2133084 	ands	r3, r3, #132	; 0x84
    2450:	e58db048 	str	r11, [sp, #72]	; 0x48
    2454:	e58d3050 	str	r3, [sp, #80]	; 0x50
    2458:	1a000178 	bne	2a40 <_vfprintf_r+0xc30>
    245c:	e59d4030 	ldr	r4, [sp, #48]	; 0x30
    2460:	e59d6020 	ldr	r6, [sp, #32]
    2464:	e0667004 	rsb	r7, r6, r4
    2468:	e3570000 	cmp	r7, #0
    246c:	da000173 	ble	2a40 <_vfprintf_r+0xc30>
    2470:	e28d40a8 	add	r4, sp, #168	; 0xa8
    2474:	e3570010 	cmp	r7, #16
    2478:	e8940050 	ldm	r4, {r4, r6}
    247c:	e59f9d00 	ldr	r9, [pc, #3328]	; 3184 <_vfprintf_r+0x1374>
    2480:	da000023 	ble	2514 <_vfprintf_r+0x704>
    2484:	e28da0a4 	add	r10, sp, #164	; 0xa4
    2488:	e1a03009 	mov	r3, r9
    248c:	e58d8078 	str	r8, [sp, #120]	; 0x78
    2490:	e1a09007 	mov	r9, r7
    2494:	e1a0800a 	mov	r8, r10
    2498:	e3a0b010 	mov	r11, #16
    249c:	e59da02c 	ldr	r10, [sp, #44]	; 0x2c
    24a0:	e1a07003 	mov	r7, r3
    24a4:	ea000002 	b	24b4 <_vfprintf_r+0x6a4>
    24a8:	e2499010 	sub	r9, r9, #16
    24ac:	e3590010 	cmp	r9, #16
    24b0:	da000013 	ble	2504 <_vfprintf_r+0x6f4>
    24b4:	e2844001 	add	r4, r4, #1
    24b8:	e3540007 	cmp	r4, #7
    24bc:	e2866010 	add	r6, r6, #16
    24c0:	e8850880 	stm	r5, {r7, r11}
    24c4:	e58d60ac 	str	r6, [sp, #172]	; 0xac
    24c8:	e58d40a8 	str	r4, [sp, #168]	; 0xa8
    24cc:	d2855008 	addle	r5, r5, #8
    24d0:	dafffff4 	ble	24a8 <_vfprintf_r+0x698>
    24d4:	e1a0000a 	mov	r0, r10
    24d8:	e59d101c 	ldr	r1, [sp, #28]
    24dc:	e1a02008 	mov	r2, r8
    24e0:	eb003001 	bl	e4ec <__sprint_r>
    24e4:	e3500000 	cmp	r0, #0
    24e8:	1affff2d 	bne	21a4 <_vfprintf_r+0x394>
    24ec:	e2499010 	sub	r9, r9, #16
    24f0:	e28d40a8 	add	r4, sp, #168	; 0xa8
    24f4:	e3590010 	cmp	r9, #16
    24f8:	e8940050 	ldm	r4, {r4, r6}
    24fc:	e28d5d05 	add	r5, sp, #320	; 0x140
    2500:	caffffeb 	bgt	24b4 <_vfprintf_r+0x6a4>
    2504:	e1a03007 	mov	r3, r7
    2508:	e59d8078 	ldr	r8, [sp, #120]	; 0x78
    250c:	e1a07009 	mov	r7, r9
    2510:	e1a09003 	mov	r9, r3
    2514:	e2844001 	add	r4, r4, #1
    2518:	e0866007 	add	r6, r6, r7
    251c:	e3540007 	cmp	r4, #7
    2520:	e5859000 	str	r9, [r5]
    2524:	e5857004 	str	r7, [r5, #4]
    2528:	e58d60ac 	str	r6, [sp, #172]	; 0xac
    252c:	e58d40a8 	str	r4, [sp, #168]	; 0xa8
    2530:	d2855008 	addle	r5, r5, #8
    2534:	da000142 	ble	2a44 <_vfprintf_r+0xc34>
    2538:	e59d002c 	ldr	r0, [sp, #44]	; 0x2c
    253c:	e59d101c 	ldr	r1, [sp, #28]
    2540:	e28d20a4 	add	r2, sp, #164	; 0xa4
    2544:	eb002fe8 	bl	e4ec <__sprint_r>
    2548:	e3500000 	cmp	r0, #0
    254c:	1affff14 	bne	21a4 <_vfprintf_r+0x394>
    2550:	e59d60ac 	ldr	r6, [sp, #172]	; 0xac
    2554:	e28d5d05 	add	r5, sp, #320	; 0x140
    2558:	ea000139 	b	2a44 <_vfprintf_r+0xc34>
    255c:	e59d6018 	ldr	r6, [sp, #24]
    2560:	e3160008 	tst	r6, #8
    2564:	e58d3028 	str	r3, [sp, #40]	; 0x28
    2568:	0a000493 	beq	37bc <_vfprintf_r+0x19ac>
    256c:	e59d703c 	ldr	r7, [sp, #60]	; 0x3c
    2570:	e2871007 	add	r1, r7, #7
    2574:	e3c11007 	bic	r1, r1, #7
    2578:	e591a000 	ldr	r10, [r1]
    257c:	e5917004 	ldr	r7, [r1, #4]
    2580:	e1a0b00a 	mov	r11, r10
    2584:	e1a0c007 	mov	r12, r7
    2588:	e2811008 	add	r1, r1, #8
    258c:	e58db068 	str	r11, [sp, #104]	; 0x68
    2590:	e58dc06c 	str	r12, [sp, #108]	; 0x6c
    2594:	e58d103c 	str	r1, [sp, #60]	; 0x3c
    2598:	e1a01007 	mov	r1, r7
    259c:	e1a0000a 	mov	r0, r10
    25a0:	eb001de1 	bl	9d2c <__fpclassifyd>
    25a4:	e3500001 	cmp	r0, #1
    25a8:	e1a01007 	mov	r1, r7
    25ac:	e1a0000a 	mov	r0, r10
    25b0:	1a000426 	bne	3650 <_vfprintf_r+0x1840>
    25b4:	e3a03000 	mov	r3, #0
    25b8:	e3a02000 	mov	r2, #0
    25bc:	eb004303 	bl	131d0 <__aeabi_dcmplt>
    25c0:	e3500000 	cmp	r0, #0
    25c4:	13a0302d 	movne	r3, #45	; 0x2d
    25c8:	e59d7018 	ldr	r7, [sp, #24]
    25cc:	e59f2bb4 	ldr	r2, [pc, #2996]	; 3188 <_vfprintf_r+0x1378>
    25d0:	e59f1bb4 	ldr	r1, [pc, #2996]	; 318c <_vfprintf_r+0x137c>
    25d4:	05dd3083 	ldrbeq	r3, [sp, #131]	; 0x83
    25d8:	15cd3083 	strbne	r3, [sp, #131]	; 0x83
    25dc:	e3580047 	cmp	r8, #71	; 0x47
    25e0:	e3a04003 	mov	r4, #3
    25e4:	e3a06000 	mov	r6, #0
    25e8:	d1a01002 	movle	r1, r2
    25ec:	e3c77080 	bic	r7, r7, #128	; 0x80
    25f0:	e58d4020 	str	r4, [sp, #32]
    25f4:	e58d6040 	str	r6, [sp, #64]	; 0x40
    25f8:	e58d104c 	str	r1, [sp, #76]	; 0x4c
    25fc:	e58d7018 	str	r7, [sp, #24]
    2600:	e58d4038 	str	r4, [sp, #56]	; 0x38
    2604:	e58d6060 	str	r6, [sp, #96]	; 0x60
    2608:	eaffff84 	b	2420 <_vfprintf_r+0x610>
    260c:	e59d6018 	ldr	r6, [sp, #24]
    2610:	e3866008 	orr	r6, r6, #8
    2614:	e58d6018 	str	r6, [sp, #24]
    2618:	e5d38000 	ldrb	r8, [r3]
    261c:	eafffe5e 	b	1f9c <_vfprintf_r+0x18c>
    2620:	e59d6018 	ldr	r6, [sp, #24]
    2624:	e3866010 	orr	r6, r6, #16
    2628:	e58d6018 	str	r6, [sp, #24]
    262c:	e59d7018 	ldr	r7, [sp, #24]
    2630:	e58d3028 	str	r3, [sp, #40]	; 0x28
    2634:	e2173020 	ands	r3, r7, #32
    2638:	0a000074 	beq	2810 <_vfprintf_r+0xa00>
    263c:	e59db03c 	ldr	r11, [sp, #60]	; 0x3c
    2640:	e28b3007 	add	r3, r11, #7
    2644:	e3c33007 	bic	r3, r3, #7
    2648:	e89300c0 	ldm	r3, {r6, r7}
    264c:	e2833008 	add	r3, r3, #8
    2650:	e196c007 	orrs	r12, r6, r7
    2654:	e58d303c 	str	r3, [sp, #60]	; 0x3c
    2658:	03a02000 	moveq	r2, #0
    265c:	13a02001 	movne	r2, #1
    2660:	e3a03000 	mov	r3, #0
    2664:	e3a01000 	mov	r1, #0
    2668:	e5cd1083 	strb	r1, [sp, #131]	; 0x83
    266c:	eaffff41 	b	2378 <_vfprintf_r+0x568>
    2670:	e59d6018 	ldr	r6, [sp, #24]
    2674:	e3866010 	orr	r6, r6, #16
    2678:	e58d6018 	str	r6, [sp, #24]
    267c:	e59d7018 	ldr	r7, [sp, #24]
    2680:	e3170020 	tst	r7, #32
    2684:	e58d3028 	str	r3, [sp, #40]	; 0x28
    2688:	0a000095 	beq	28e4 <_vfprintf_r+0xad4>
    268c:	e59db03c 	ldr	r11, [sp, #60]	; 0x3c
    2690:	e28b3007 	add	r3, r11, #7
    2694:	e3c33007 	bic	r3, r3, #7
    2698:	e89300c0 	ldm	r3, {r6, r7}
    269c:	e2833008 	add	r3, r3, #8
    26a0:	e196c007 	orrs	r12, r6, r7
    26a4:	e58d303c 	str	r3, [sp, #60]	; 0x3c
    26a8:	03a02000 	moveq	r2, #0
    26ac:	13a02001 	movne	r2, #1
    26b0:	e3a03001 	mov	r3, #1
    26b4:	eaffffea 	b	2664 <_vfprintf_r+0x854>
    26b8:	e59db018 	ldr	r11, [sp, #24]
    26bc:	e59f7acc 	ldr	r7, [pc, #2764]	; 3190 <_vfprintf_r+0x1380>
    26c0:	e31b0020 	tst	r11, #32
    26c4:	e58d3028 	str	r3, [sp, #40]	; 0x28
    26c8:	e58d7074 	str	r7, [sp, #116]	; 0x74
    26cc:	0a000098 	beq	2934 <_vfprintf_r+0xb24>
    26d0:	e59dc03c 	ldr	r12, [sp, #60]	; 0x3c
    26d4:	e28c3007 	add	r3, r12, #7
    26d8:	e3c33007 	bic	r3, r3, #7
    26dc:	e2836008 	add	r6, r3, #8
    26e0:	e58d603c 	str	r6, [sp, #60]	; 0x3c
    26e4:	e89300c0 	ldm	r3, {r6, r7}
    26e8:	e59db018 	ldr	r11, [sp, #24]
    26ec:	e31b0001 	tst	r11, #1
    26f0:	1a0002f2 	bne	32c0 <_vfprintf_r+0x14b0>
    26f4:	e196c007 	orrs	r12, r6, r7
    26f8:	03a02000 	moveq	r2, #0
    26fc:	13a02001 	movne	r2, #1
    2700:	e3a03002 	mov	r3, #2
    2704:	eaffffd6 	b	2664 <_vfprintf_r+0x854>
    2708:	e59d6018 	ldr	r6, [sp, #24]
    270c:	e3866020 	orr	r6, r6, #32
    2710:	e58d6018 	str	r6, [sp, #24]
    2714:	e5d38000 	ldrb	r8, [r3]
    2718:	eafffe1f 	b	1f9c <_vfprintf_r+0x18c>
    271c:	e3a06000 	mov	r6, #0
    2720:	e5cd6083 	strb	r6, [sp, #131]	; 0x83
    2724:	e59d703c 	ldr	r7, [sp, #60]	; 0x3c
    2728:	e5977000 	ldr	r7, [r7]
    272c:	e59db03c 	ldr	r11, [sp, #60]	; 0x3c
    2730:	e1570006 	cmp	r7, r6
    2734:	e58d704c 	str	r7, [sp, #76]	; 0x4c
    2738:	e58d3028 	str	r3, [sp, #40]	; 0x28
    273c:	e28b7004 	add	r7, r11, #4
    2740:	0a000536 	beq	3c20 <_vfprintf_r+0x1e10>
    2744:	e3540000 	cmp	r4, #0
    2748:	e59d004c 	ldr	r0, [sp, #76]	; 0x4c
    274c:	ba000513 	blt	3ba0 <_vfprintf_r+0x1d90>
    2750:	e1a01006 	mov	r1, r6
    2754:	e1a02004 	mov	r2, r4
    2758:	eb00189f 	bl	89dc <memchr>
    275c:	e3500000 	cmp	r0, #0
    2760:	0a000584 	beq	3d78 <_vfprintf_r+0x1f68>
    2764:	e59dc04c 	ldr	r12, [sp, #76]	; 0x4c
    2768:	e06c0000 	rsb	r0, r12, r0
    276c:	e1500004 	cmp	r0, r4
    2770:	e58d0038 	str	r0, [sp, #56]	; 0x38
    2774:	e58d6040 	str	r6, [sp, #64]	; 0x40
    2778:	da00049f 	ble	39fc <_vfprintf_r+0x1bec>
    277c:	e58d703c 	str	r7, [sp, #60]	; 0x3c
    2780:	e59d7040 	ldr	r7, [sp, #64]	; 0x40
    2784:	e1c46fc4 	bic	r6, r4, r4, asr #31
    2788:	e58d6020 	str	r6, [sp, #32]
    278c:	e5dd3083 	ldrb	r3, [sp, #131]	; 0x83
    2790:	e58d4038 	str	r4, [sp, #56]	; 0x38
    2794:	e58d7060 	str	r7, [sp, #96]	; 0x60
    2798:	eaffff20 	b	2420 <_vfprintf_r+0x610>
    279c:	e5d38000 	ldrb	r8, [r3]
    27a0:	e358006c 	cmp	r8, #108	; 0x6c
    27a4:	059db018 	ldreq	r11, [sp, #24]
    27a8:	159dc018 	ldrne	r12, [sp, #24]
    27ac:	e1a00003 	mov	r0, r3
    27b0:	038bb020 	orreq	r11, r11, #32
    27b4:	138cc010 	orrne	r12, r12, #16
    27b8:	02833001 	addeq	r3, r3, #1
    27bc:	058db018 	streq	r11, [sp, #24]
    27c0:	05d08001 	ldrbeq	r8, [r0, #1]
    27c4:	158dc018 	strne	r12, [sp, #24]
    27c8:	eafffdf3 	b	1f9c <_vfprintf_r+0x18c>
    27cc:	e59d4018 	ldr	r4, [sp, #24]
    27d0:	e3140020 	tst	r4, #32
    27d4:	e58d3028 	str	r3, [sp, #40]	; 0x28
    27d8:	0a000403 	beq	37ec <_vfprintf_r+0x19dc>
    27dc:	e59d603c 	ldr	r6, [sp, #60]	; 0x3c
    27e0:	e59d2034 	ldr	r2, [sp, #52]	; 0x34
    27e4:	e5963000 	ldr	r3, [r6]
    27e8:	e1a01fc2 	asr	r1, r2, #31
    27ec:	e2866004 	add	r6, r6, #4
    27f0:	e5832000 	str	r2, [r3]
    27f4:	e5831004 	str	r1, [r3, #4]
    27f8:	e58d603c 	str	r6, [sp, #60]	; 0x3c
    27fc:	eafffdbb 	b	1ef0 <_vfprintf_r+0xe0>
    2800:	e59d7018 	ldr	r7, [sp, #24]
    2804:	e58d3028 	str	r3, [sp, #40]	; 0x28
    2808:	e2173020 	ands	r3, r7, #32
    280c:	1affff8a 	bne	263c <_vfprintf_r+0x82c>
    2810:	e59d6018 	ldr	r6, [sp, #24]
    2814:	e2161010 	ands	r1, r6, #16
    2818:	0a00041e 	beq	3898 <_vfprintf_r+0x1a88>
    281c:	e59d703c 	ldr	r7, [sp, #60]	; 0x3c
    2820:	e59db03c 	ldr	r11, [sp, #60]	; 0x3c
    2824:	e5972000 	ldr	r2, [r7]
    2828:	e3a07000 	mov	r7, #0
    282c:	e1a06002 	mov	r6, r2
    2830:	e28bb004 	add	r11, r11, #4
    2834:	e0522007 	subs	r2, r2, r7
    2838:	13a02001 	movne	r2, #1
    283c:	e58db03c 	str	r11, [sp, #60]	; 0x3c
    2840:	eaffff87 	b	2664 <_vfprintf_r+0x854>
    2844:	e3580000 	cmp	r8, #0
    2848:	e58d3028 	str	r3, [sp, #40]	; 0x28
    284c:	0a000461 	beq	39d8 <_vfprintf_r+0x1bc8>
    2850:	e3a0c001 	mov	r12, #1
    2854:	e3a03000 	mov	r3, #0
    2858:	e28d40b0 	add	r4, sp, #176	; 0xb0
    285c:	e58dc020 	str	r12, [sp, #32]
    2860:	e5cd80b0 	strb	r8, [sp, #176]	; 0xb0
    2864:	e5cd3083 	strb	r3, [sp, #131]	; 0x83
    2868:	e58dc038 	str	r12, [sp, #56]	; 0x38
    286c:	e58d404c 	str	r4, [sp, #76]	; 0x4c
    2870:	e3a04000 	mov	r4, #0
    2874:	e58d4040 	str	r4, [sp, #64]	; 0x40
    2878:	e58d4060 	str	r4, [sp, #96]	; 0x60
    287c:	eafffeec 	b	2434 <_vfprintf_r+0x624>
    2880:	e5dd0083 	ldrb	r0, [sp, #131]	; 0x83
    2884:	e3500000 	cmp	r0, #0
    2888:	1a00036e 	bne	3648 <_vfprintf_r+0x1838>
    288c:	e5cd1083 	strb	r1, [sp, #131]	; 0x83
    2890:	e5d38000 	ldrb	r8, [r3]
    2894:	eafffdc0 	b	1f9c <_vfprintf_r+0x18c>
    2898:	e59d7018 	ldr	r7, [sp, #24]
    289c:	e3877001 	orr	r7, r7, #1
    28a0:	e58d7018 	str	r7, [sp, #24]
    28a4:	e5d38000 	ldrb	r8, [r3]
    28a8:	eafffdbb 	b	1f9c <_vfprintf_r+0x18c>
    28ac:	e59db03c 	ldr	r11, [sp, #60]	; 0x3c
    28b0:	e59bb000 	ldr	r11, [r11]
    28b4:	e59dc03c 	ldr	r12, [sp, #60]	; 0x3c
    28b8:	e35b0000 	cmp	r11, #0
    28bc:	e58db030 	str	r11, [sp, #48]	; 0x30
    28c0:	e28c0004 	add	r0, r12, #4
    28c4:	bafffe12 	blt	2114 <_vfprintf_r+0x304>
    28c8:	e5d38000 	ldrb	r8, [r3]
    28cc:	e58d003c 	str	r0, [sp, #60]	; 0x3c
    28d0:	eafffdb1 	b	1f9c <_vfprintf_r+0x18c>
    28d4:	e59d7018 	ldr	r7, [sp, #24]
    28d8:	e3170020 	tst	r7, #32
    28dc:	e58d3028 	str	r3, [sp, #40]	; 0x28
    28e0:	1affff69 	bne	268c <_vfprintf_r+0x87c>
    28e4:	e59d6018 	ldr	r6, [sp, #24]
    28e8:	e3160010 	tst	r6, #16
    28ec:	0a0003e3 	beq	3880 <_vfprintf_r+0x1a70>
    28f0:	e59d703c 	ldr	r7, [sp, #60]	; 0x3c
    28f4:	e5972000 	ldr	r2, [r7]
    28f8:	e59db03c 	ldr	r11, [sp, #60]	; 0x3c
    28fc:	e3a07000 	mov	r7, #0
    2900:	e1a06002 	mov	r6, r2
    2904:	e28bb004 	add	r11, r11, #4
    2908:	e0522007 	subs	r2, r2, r7
    290c:	13a02001 	movne	r2, #1
    2910:	e58db03c 	str	r11, [sp, #60]	; 0x3c
    2914:	e3a03001 	mov	r3, #1
    2918:	eaffff51 	b	2664 <_vfprintf_r+0x854>
    291c:	e59db018 	ldr	r11, [sp, #24]
    2920:	e59f686c 	ldr	r6, [pc, #2156]	; 3194 <_vfprintf_r+0x1384>
    2924:	e31b0020 	tst	r11, #32
    2928:	e58d3028 	str	r3, [sp, #40]	; 0x28
    292c:	e58d6074 	str	r6, [sp, #116]	; 0x74
    2930:	1affff66 	bne	26d0 <_vfprintf_r+0x8c0>
    2934:	e59d7018 	ldr	r7, [sp, #24]
    2938:	e3170010 	tst	r7, #16
    293c:	0a0003c4 	beq	3854 <_vfprintf_r+0x1a44>
    2940:	e59db03c 	ldr	r11, [sp, #60]	; 0x3c
    2944:	e59b3000 	ldr	r3, [r11]
    2948:	e28bb004 	add	r11, r11, #4
    294c:	e1a06003 	mov	r6, r3
    2950:	e3a07000 	mov	r7, #0
    2954:	e58db03c 	str	r11, [sp, #60]	; 0x3c
    2958:	eaffff62 	b	26e8 <_vfprintf_r+0x8d8>
    295c:	e59d7018 	ldr	r7, [sp, #24]
    2960:	e3170020 	tst	r7, #32
    2964:	e58d3028 	str	r3, [sp, #40]	; 0x28
    2968:	1afffe73 	bne	233c <_vfprintf_r+0x52c>
    296c:	e59dc018 	ldr	r12, [sp, #24]
    2970:	e31c0010 	tst	r12, #16
    2974:	0a0003b0 	beq	383c <_vfprintf_r+0x1a2c>
    2978:	e59d603c 	ldr	r6, [sp, #60]	; 0x3c
    297c:	e5963000 	ldr	r3, [r6]
    2980:	e59db03c 	ldr	r11, [sp, #60]	; 0x3c
    2984:	e1a07fc3 	asr	r7, r3, #31
    2988:	e28bb004 	add	r11, r11, #4
    298c:	e1a06003 	mov	r6, r3
    2990:	e1a02003 	mov	r2, r3
    2994:	e58db03c 	str	r11, [sp, #60]	; 0x3c
    2998:	e1a03007 	mov	r3, r7
    299c:	eafffe6e 	b	235c <_vfprintf_r+0x54c>
    29a0:	e59d7018 	ldr	r7, [sp, #24]
    29a4:	e3877040 	orr	r7, r7, #64	; 0x40
    29a8:	e58d7018 	str	r7, [sp, #24]
    29ac:	e5d38000 	ldrb	r8, [r3]
    29b0:	eafffd79 	b	1f9c <_vfprintf_r+0x18c>
    29b4:	e58d3028 	str	r3, [sp, #40]	; 0x28
    29b8:	e59d303c 	ldr	r3, [sp, #60]	; 0x3c
    29bc:	e59db03c 	ldr	r11, [sp, #60]	; 0x3c
    29c0:	e5933000 	ldr	r3, [r3]
    29c4:	e3a07001 	mov	r7, #1
    29c8:	e28bb004 	add	r11, r11, #4
    29cc:	e5cd30b0 	strb	r3, [sp, #176]	; 0xb0
    29d0:	e28dc0b0 	add	r12, sp, #176	; 0xb0
    29d4:	e3a03000 	mov	r3, #0
    29d8:	e58d7020 	str	r7, [sp, #32]
    29dc:	e58db03c 	str	r11, [sp, #60]	; 0x3c
    29e0:	e5cd3083 	strb	r3, [sp, #131]	; 0x83
    29e4:	e58d7038 	str	r7, [sp, #56]	; 0x38
    29e8:	e58dc04c 	str	r12, [sp, #76]	; 0x4c
    29ec:	eaffff9f 	b	2870 <_vfprintf_r+0xa60>
    29f0:	e59dc018 	ldr	r12, [sp, #24]
    29f4:	e58d3028 	str	r3, [sp, #40]	; 0x28
    29f8:	e59d303c 	ldr	r3, [sp, #60]	; 0x3c
    29fc:	e38cc002 	orr	r12, r12, #2
    2a00:	e5932000 	ldr	r2, [r3]
    2a04:	e58dc018 	str	r12, [sp, #24]
    2a08:	e3a07000 	mov	r7, #0
    2a0c:	e59fc780 	ldr	r12, [pc, #1920]	; 3194 <_vfprintf_r+0x1384>
    2a10:	e283b004 	add	r11, r3, #4
    2a14:	e3a08078 	mov	r8, #120	; 0x78
    2a18:	e3a03030 	mov	r3, #48	; 0x30
    2a1c:	e1a06002 	mov	r6, r2
    2a20:	e0522007 	subs	r2, r2, r7
    2a24:	e5cd3084 	strb	r3, [sp, #132]	; 0x84
    2a28:	e58db03c 	str	r11, [sp, #60]	; 0x3c
    2a2c:	e5cd8085 	strb	r8, [sp, #133]	; 0x85
    2a30:	13a02001 	movne	r2, #1
    2a34:	e58dc074 	str	r12, [sp, #116]	; 0x74
    2a38:	e3a03002 	mov	r3, #2
    2a3c:	eaffff08 	b	2664 <_vfprintf_r+0x854>
    2a40:	e59d60ac 	ldr	r6, [sp, #172]	; 0xac
    2a44:	e5dd3083 	ldrb	r3, [sp, #131]	; 0x83
    2a48:	e3530000 	cmp	r3, #0
    2a4c:	0a00000c 	beq	2a84 <_vfprintf_r+0xc74>
    2a50:	e59d40a8 	ldr	r4, [sp, #168]	; 0xa8
    2a54:	e28d3083 	add	r3, sp, #131	; 0x83
    2a58:	e2844001 	add	r4, r4, #1
    2a5c:	e5853000 	str	r3, [r5]
    2a60:	e2866001 	add	r6, r6, #1
    2a64:	e3540007 	cmp	r4, #7
    2a68:	e3a03001 	mov	r3, #1
    2a6c:	e5853004 	str	r3, [r5, #4]
    2a70:	e28d7090 	add	r7, sp, #144	; 0x90
    2a74:	e58d60ac 	str	r6, [sp, #172]	; 0xac
    2a78:	e58d40a8 	str	r4, [sp, #168]	; 0xa8
    2a7c:	d2855008 	addle	r5, r5, #8
    2a80:	ca000179 	bgt	306c <_vfprintf_r+0x125c>
    2a84:	e59dc048 	ldr	r12, [sp, #72]	; 0x48
    2a88:	e35c0000 	cmp	r12, #0
    2a8c:	0a00000b 	beq	2ac0 <_vfprintf_r+0xcb0>
    2a90:	e59d40a8 	ldr	r4, [sp, #168]	; 0xa8
    2a94:	e28d3084 	add	r3, sp, #132	; 0x84
    2a98:	e2844001 	add	r4, r4, #1
    2a9c:	e5853000 	str	r3, [r5]
    2aa0:	e2866002 	add	r6, r6, #2
    2aa4:	e3540007 	cmp	r4, #7
    2aa8:	e3a03002 	mov	r3, #2
    2aac:	e5853004 	str	r3, [r5, #4]
    2ab0:	e58d60ac 	str	r6, [sp, #172]	; 0xac
    2ab4:	e58d40a8 	str	r4, [sp, #168]	; 0xa8
    2ab8:	d2855008 	addle	r5, r5, #8
    2abc:	ca000161 	bgt	3048 <_vfprintf_r+0x1238>
    2ac0:	e59d4050 	ldr	r4, [sp, #80]	; 0x50
    2ac4:	e3540080 	cmp	r4, #128	; 0x80
    2ac8:	0a0000e3 	beq	2e5c <_vfprintf_r+0x104c>
    2acc:	e59d4040 	ldr	r4, [sp, #64]	; 0x40
    2ad0:	e59d7038 	ldr	r7, [sp, #56]	; 0x38
    2ad4:	e0679004 	rsb	r9, r7, r4
    2ad8:	e3590000 	cmp	r9, #0
    2adc:	da000031 	ble	2ba8 <_vfprintf_r+0xd98>
    2ae0:	e3590010 	cmp	r9, #16
    2ae4:	e59d40a8 	ldr	r4, [sp, #168]	; 0xa8
    2ae8:	e59f76ac 	ldr	r7, [pc, #1708]	; 319c <_vfprintf_r+0x138c>
    2aec:	da00001d 	ble	2b68 <_vfprintf_r+0xd58>
    2af0:	e28da0a4 	add	r10, sp, #164	; 0xa4
    2af4:	e58d8040 	str	r8, [sp, #64]	; 0x40
    2af8:	e3a0b010 	mov	r11, #16
    2afc:	e1a0800a 	mov	r8, r10
    2b00:	e59da02c 	ldr	r10, [sp, #44]	; 0x2c
    2b04:	ea000002 	b	2b14 <_vfprintf_r+0xd04>
    2b08:	e2499010 	sub	r9, r9, #16
    2b0c:	e3590010 	cmp	r9, #16
    2b10:	da000013 	ble	2b64 <_vfprintf_r+0xd54>
    2b14:	e2844001 	add	r4, r4, #1
    2b18:	e3540007 	cmp	r4, #7
    2b1c:	e2866010 	add	r6, r6, #16
    2b20:	e8850880 	stm	r5, {r7, r11}
    2b24:	e58d60ac 	str	r6, [sp, #172]	; 0xac
    2b28:	e58d40a8 	str	r4, [sp, #168]	; 0xa8
    2b2c:	d2855008 	addle	r5, r5, #8
    2b30:	dafffff4 	ble	2b08 <_vfprintf_r+0xcf8>
    2b34:	e1a0000a 	mov	r0, r10
    2b38:	e59d101c 	ldr	r1, [sp, #28]
    2b3c:	e1a02008 	mov	r2, r8
    2b40:	eb002e69 	bl	e4ec <__sprint_r>
    2b44:	e3500000 	cmp	r0, #0
    2b48:	1afffd95 	bne	21a4 <_vfprintf_r+0x394>
    2b4c:	e2499010 	sub	r9, r9, #16
    2b50:	e28d40a8 	add	r4, sp, #168	; 0xa8
    2b54:	e3590010 	cmp	r9, #16
    2b58:	e8940050 	ldm	r4, {r4, r6}
    2b5c:	e28d5d05 	add	r5, sp, #320	; 0x140
    2b60:	caffffeb 	bgt	2b14 <_vfprintf_r+0xd04>
    2b64:	e59d8040 	ldr	r8, [sp, #64]	; 0x40
    2b68:	e2844001 	add	r4, r4, #1
    2b6c:	e0866009 	add	r6, r6, r9
    2b70:	e3540007 	cmp	r4, #7
    2b74:	e8850280 	stm	r5, {r7, r9}
    2b78:	e58d60ac 	str	r6, [sp, #172]	; 0xac
    2b7c:	e58d40a8 	str	r4, [sp, #168]	; 0xa8
    2b80:	d2855008 	addle	r5, r5, #8
    2b84:	da000007 	ble	2ba8 <_vfprintf_r+0xd98>
    2b88:	e59d002c 	ldr	r0, [sp, #44]	; 0x2c
    2b8c:	e59d101c 	ldr	r1, [sp, #28]
    2b90:	e28d20a4 	add	r2, sp, #164	; 0xa4
    2b94:	eb002e54 	bl	e4ec <__sprint_r>
    2b98:	e3500000 	cmp	r0, #0
    2b9c:	1afffd80 	bne	21a4 <_vfprintf_r+0x394>
    2ba0:	e59d60ac 	ldr	r6, [sp, #172]	; 0xac
    2ba4:	e28d5d05 	add	r5, sp, #320	; 0x140
    2ba8:	e59d4018 	ldr	r4, [sp, #24]
    2bac:	e3140c01 	tst	r4, #256	; 0x100
    2bb0:	1a000052 	bne	2d00 <_vfprintf_r+0xef0>
    2bb4:	e59d40a8 	ldr	r4, [sp, #168]	; 0xa8
    2bb8:	e59d7038 	ldr	r7, [sp, #56]	; 0x38
    2bbc:	e2844001 	add	r4, r4, #1
    2bc0:	e59dc04c 	ldr	r12, [sp, #76]	; 0x4c
    2bc4:	e0866007 	add	r6, r6, r7
    2bc8:	e3540007 	cmp	r4, #7
    2bcc:	e585c000 	str	r12, [r5]
    2bd0:	e5857004 	str	r7, [r5, #4]
    2bd4:	e58d60ac 	str	r6, [sp, #172]	; 0xac
    2bd8:	e58d40a8 	str	r4, [sp, #168]	; 0xa8
    2bdc:	ca00010c 	bgt	3014 <_vfprintf_r+0x1204>
    2be0:	e2855008 	add	r5, r5, #8
    2be4:	e59d4018 	ldr	r4, [sp, #24]
    2be8:	e3140004 	tst	r4, #4
    2bec:	0a000036 	beq	2ccc <_vfprintf_r+0xebc>
    2bf0:	e59d7030 	ldr	r7, [sp, #48]	; 0x30
    2bf4:	e59db020 	ldr	r11, [sp, #32]
    2bf8:	e06b8007 	rsb	r8, r11, r7
    2bfc:	e3580000 	cmp	r8, #0
    2c00:	da000031 	ble	2ccc <_vfprintf_r+0xebc>
    2c04:	e3580010 	cmp	r8, #16
    2c08:	e59d40a8 	ldr	r4, [sp, #168]	; 0xa8
    2c0c:	e59f9570 	ldr	r9, [pc, #1392]	; 3184 <_vfprintf_r+0x1374>
    2c10:	da00001e 	ble	2c90 <_vfprintf_r+0xe80>
    2c14:	e28d70a4 	add	r7, sp, #164	; 0xa4
    2c18:	e1a03007 	mov	r3, r7
    2c1c:	e3a0a010 	mov	r10, #16
    2c20:	e1a07009 	mov	r7, r9
    2c24:	e59db02c 	ldr	r11, [sp, #44]	; 0x2c
    2c28:	e1a09003 	mov	r9, r3
    2c2c:	ea000002 	b	2c3c <_vfprintf_r+0xe2c>
    2c30:	e2488010 	sub	r8, r8, #16
    2c34:	e3580010 	cmp	r8, #16
    2c38:	da000013 	ble	2c8c <_vfprintf_r+0xe7c>
    2c3c:	e2844001 	add	r4, r4, #1
    2c40:	e3540007 	cmp	r4, #7
    2c44:	e2866010 	add	r6, r6, #16
    2c48:	e8850480 	stm	r5, {r7, r10}
    2c4c:	e58d60ac 	str	r6, [sp, #172]	; 0xac
    2c50:	e58d40a8 	str	r4, [sp, #168]	; 0xa8
    2c54:	d2855008 	addle	r5, r5, #8
    2c58:	dafffff4 	ble	2c30 <_vfprintf_r+0xe20>
    2c5c:	e1a0000b 	mov	r0, r11
    2c60:	e59d101c 	ldr	r1, [sp, #28]
    2c64:	e1a02009 	mov	r2, r9
    2c68:	eb002e1f 	bl	e4ec <__sprint_r>
    2c6c:	e3500000 	cmp	r0, #0
    2c70:	1afffd4b 	bne	21a4 <_vfprintf_r+0x394>
    2c74:	e2488010 	sub	r8, r8, #16
    2c78:	e28d40a8 	add	r4, sp, #168	; 0xa8
    2c7c:	e3580010 	cmp	r8, #16
    2c80:	e8940050 	ldm	r4, {r4, r6}
    2c84:	e28d5d05 	add	r5, sp, #320	; 0x140
    2c88:	caffffeb 	bgt	2c3c <_vfprintf_r+0xe2c>
    2c8c:	e1a09007 	mov	r9, r7
    2c90:	e2844001 	add	r4, r4, #1
    2c94:	e0886006 	add	r6, r8, r6
    2c98:	e3540007 	cmp	r4, #7
    2c9c:	e5859000 	str	r9, [r5]
    2ca0:	e5858004 	str	r8, [r5, #4]
    2ca4:	e58d60ac 	str	r6, [sp, #172]	; 0xac
    2ca8:	e58d40a8 	str	r4, [sp, #168]	; 0xa8
    2cac:	da000006 	ble	2ccc <_vfprintf_r+0xebc>
    2cb0:	e59d002c 	ldr	r0, [sp, #44]	; 0x2c
    2cb4:	e59d101c 	ldr	r1, [sp, #28]
    2cb8:	e28d20a4 	add	r2, sp, #164	; 0xa4
    2cbc:	eb002e0a 	bl	e4ec <__sprint_r>
    2cc0:	e3500000 	cmp	r0, #0
    2cc4:	1afffd36 	bne	21a4 <_vfprintf_r+0x394>
    2cc8:	e59d60ac 	ldr	r6, [sp, #172]	; 0xac
    2ccc:	e59d4034 	ldr	r4, [sp, #52]	; 0x34
    2cd0:	e59d7020 	ldr	r7, [sp, #32]
    2cd4:	e59db030 	ldr	r11, [sp, #48]	; 0x30
    2cd8:	e157000b 	cmp	r7, r11
    2cdc:	a0844007 	addge	r4, r4, r7
    2ce0:	b084400b 	addlt	r4, r4, r11
    2ce4:	e3560000 	cmp	r6, #0
    2ce8:	e58d4034 	str	r4, [sp, #52]	; 0x34
    2cec:	1afffd26 	bne	218c <_vfprintf_r+0x37c>
    2cf0:	e3a03000 	mov	r3, #0
    2cf4:	e58d30a8 	str	r3, [sp, #168]	; 0xa8
    2cf8:	e28d5d05 	add	r5, sp, #320	; 0x140
    2cfc:	eafffc7b 	b	1ef0 <_vfprintf_r+0xe0>
    2d00:	e3580065 	cmp	r8, #101	; 0x65
    2d04:	da00008c 	ble	2f3c <_vfprintf_r+0x112c>
    2d08:	e28d1068 	add	r1, sp, #104	; 0x68
    2d0c:	e8910003 	ldm	r1, {r0, r1}
    2d10:	e3a02000 	mov	r2, #0
    2d14:	e3a03000 	mov	r3, #0
    2d18:	eb004126 	bl	131b8 <__aeabi_dcmpeq>
    2d1c:	e3500000 	cmp	r0, #0
    2d20:	0a0000db 	beq	3094 <_vfprintf_r+0x1284>
    2d24:	e59d40a8 	ldr	r4, [sp, #168]	; 0xa8
    2d28:	e59f3468 	ldr	r3, [pc, #1128]	; 3198 <_vfprintf_r+0x1388>
    2d2c:	e2844001 	add	r4, r4, #1
    2d30:	e5853000 	str	r3, [r5]
    2d34:	e2866001 	add	r6, r6, #1
    2d38:	e3540007 	cmp	r4, #7
    2d3c:	e3a03001 	mov	r3, #1
    2d40:	e5853004 	str	r3, [r5, #4]
    2d44:	e58d60ac 	str	r6, [sp, #172]	; 0xac
    2d48:	e58d40a8 	str	r4, [sp, #168]	; 0xa8
    2d4c:	d2855008 	addle	r5, r5, #8
    2d50:	ca0002de 	bgt	38d0 <_vfprintf_r+0x1ac0>
    2d54:	e59d3088 	ldr	r3, [sp, #136]	; 0x88
    2d58:	e59d7044 	ldr	r7, [sp, #68]	; 0x44
    2d5c:	e1530007 	cmp	r3, r7
    2d60:	ba000002 	blt	2d70 <_vfprintf_r+0xf60>
    2d64:	e59db018 	ldr	r11, [sp, #24]
    2d68:	e31b0001 	tst	r11, #1
    2d6c:	0affff9c 	beq	2be4 <_vfprintf_r+0xdd4>
    2d70:	e59d40a8 	ldr	r4, [sp, #168]	; 0xa8
    2d74:	e59dc064 	ldr	r12, [sp, #100]	; 0x64
    2d78:	e2844001 	add	r4, r4, #1
    2d7c:	e59d7058 	ldr	r7, [sp, #88]	; 0x58
    2d80:	e086600c 	add	r6, r6, r12
    2d84:	e3540007 	cmp	r4, #7
    2d88:	e8851080 	stm	r5, {r7, r12}
    2d8c:	e58d60ac 	str	r6, [sp, #172]	; 0xac
    2d90:	e58d40a8 	str	r4, [sp, #168]	; 0xa8
    2d94:	d2855008 	addle	r5, r5, #8
    2d98:	ca000362 	bgt	3b28 <_vfprintf_r+0x1d18>
    2d9c:	e59dc044 	ldr	r12, [sp, #68]	; 0x44
    2da0:	e24ca001 	sub	r10, r12, #1
    2da4:	e35a0000 	cmp	r10, #0
    2da8:	daffff8d 	ble	2be4 <_vfprintf_r+0xdd4>
    2dac:	e35a0010 	cmp	r10, #16
    2db0:	e59d40a8 	ldr	r4, [sp, #168]	; 0xa8
    2db4:	e59f73e0 	ldr	r7, [pc, #992]	; 319c <_vfprintf_r+0x138c>
    2db8:	da00014c 	ble	32f0 <_vfprintf_r+0x14e0>
    2dbc:	e28d80a4 	add	r8, sp, #164	; 0xa4
    2dc0:	e1a03008 	mov	r3, r8
    2dc4:	e3a09010 	mov	r9, #16
    2dc8:	e1a08007 	mov	r8, r7
    2dcc:	e59db02c 	ldr	r11, [sp, #44]	; 0x2c
    2dd0:	e1a07003 	mov	r7, r3
    2dd4:	ea000002 	b	2de4 <_vfprintf_r+0xfd4>
    2dd8:	e24aa010 	sub	r10, r10, #16
    2ddc:	e35a0010 	cmp	r10, #16
    2de0:	da000141 	ble	32ec <_vfprintf_r+0x14dc>
    2de4:	e2844001 	add	r4, r4, #1
    2de8:	e3540007 	cmp	r4, #7
    2dec:	e2866010 	add	r6, r6, #16
    2df0:	e8850300 	stm	r5, {r8, r9}
    2df4:	e58d60ac 	str	r6, [sp, #172]	; 0xac
    2df8:	e58d40a8 	str	r4, [sp, #168]	; 0xa8
    2dfc:	d2855008 	addle	r5, r5, #8
    2e00:	dafffff4 	ble	2dd8 <_vfprintf_r+0xfc8>
    2e04:	e1a0000b 	mov	r0, r11
    2e08:	e59d101c 	ldr	r1, [sp, #28]
    2e0c:	e1a02007 	mov	r2, r7
    2e10:	eb002db5 	bl	e4ec <__sprint_r>
    2e14:	e3500000 	cmp	r0, #0
    2e18:	1afffce1 	bne	21a4 <_vfprintf_r+0x394>
    2e1c:	e28d40a8 	add	r4, sp, #168	; 0xa8
    2e20:	e8940050 	ldm	r4, {r4, r6}
    2e24:	e28d5d05 	add	r5, sp, #320	; 0x140
    2e28:	eaffffea 	b	2dd8 <_vfprintf_r+0xfc8>
    2e2c:	e3530000 	cmp	r3, #0
    2e30:	1a000080 	bne	3038 <_vfprintf_r+0x1228>
    2e34:	e59d6018 	ldr	r6, [sp, #24]
    2e38:	e3160001 	tst	r6, #1
    2e3c:	0a0000f9 	beq	3228 <_vfprintf_r+0x1418>
    2e40:	e59d707c 	ldr	r7, [sp, #124]	; 0x7c
    2e44:	e59db05c 	ldr	r11, [sp, #92]	; 0x5c
    2e48:	e3a03030 	mov	r3, #48	; 0x30
    2e4c:	e5cd30d7 	strb	r3, [sp, #215]	; 0xd7
    2e50:	e58d7038 	str	r7, [sp, #56]	; 0x38
    2e54:	e58db04c 	str	r11, [sp, #76]	; 0x4c
    2e58:	eafffd68 	b	2400 <_vfprintf_r+0x5f0>
    2e5c:	e59d7030 	ldr	r7, [sp, #48]	; 0x30
    2e60:	e59db020 	ldr	r11, [sp, #32]
    2e64:	e06b9007 	rsb	r9, r11, r7
    2e68:	e3590000 	cmp	r9, #0
    2e6c:	daffff16 	ble	2acc <_vfprintf_r+0xcbc>
    2e70:	e3590010 	cmp	r9, #16
    2e74:	e59d40a8 	ldr	r4, [sp, #168]	; 0xa8
    2e78:	e59f731c 	ldr	r7, [pc, #796]	; 319c <_vfprintf_r+0x138c>
    2e7c:	da00001d 	ble	2ef8 <_vfprintf_r+0x10e8>
    2e80:	e28da0a4 	add	r10, sp, #164	; 0xa4
    2e84:	e58d8048 	str	r8, [sp, #72]	; 0x48
    2e88:	e3a0b010 	mov	r11, #16
    2e8c:	e1a0800a 	mov	r8, r10
    2e90:	e59da02c 	ldr	r10, [sp, #44]	; 0x2c
    2e94:	ea000002 	b	2ea4 <_vfprintf_r+0x1094>
    2e98:	e2499010 	sub	r9, r9, #16
    2e9c:	e3590010 	cmp	r9, #16
    2ea0:	da000013 	ble	2ef4 <_vfprintf_r+0x10e4>
    2ea4:	e2844001 	add	r4, r4, #1
    2ea8:	e3540007 	cmp	r4, #7
    2eac:	e2866010 	add	r6, r6, #16
    2eb0:	e8850880 	stm	r5, {r7, r11}
    2eb4:	e58d60ac 	str	r6, [sp, #172]	; 0xac
    2eb8:	e58d40a8 	str	r4, [sp, #168]	; 0xa8
    2ebc:	d2855008 	addle	r5, r5, #8
    2ec0:	dafffff4 	ble	2e98 <_vfprintf_r+0x1088>
    2ec4:	e1a0000a 	mov	r0, r10
    2ec8:	e59d101c 	ldr	r1, [sp, #28]
    2ecc:	e1a02008 	mov	r2, r8
    2ed0:	eb002d85 	bl	e4ec <__sprint_r>
    2ed4:	e3500000 	cmp	r0, #0
    2ed8:	1afffcb1 	bne	21a4 <_vfprintf_r+0x394>
    2edc:	e2499010 	sub	r9, r9, #16
    2ee0:	e28d40a8 	add	r4, sp, #168	; 0xa8
    2ee4:	e3590010 	cmp	r9, #16
    2ee8:	e8940050 	ldm	r4, {r4, r6}
    2eec:	e28d5d05 	add	r5, sp, #320	; 0x140
    2ef0:	caffffeb 	bgt	2ea4 <_vfprintf_r+0x1094>
    2ef4:	e59d8048 	ldr	r8, [sp, #72]	; 0x48
    2ef8:	e2844001 	add	r4, r4, #1
    2efc:	e0866009 	add	r6, r6, r9
    2f00:	e3540007 	cmp	r4, #7
    2f04:	e8850280 	stm	r5, {r7, r9}
    2f08:	e58d60ac 	str	r6, [sp, #172]	; 0xac
    2f0c:	e58d40a8 	str	r4, [sp, #168]	; 0xa8
    2f10:	d2855008 	addle	r5, r5, #8
    2f14:	dafffeec 	ble	2acc <_vfprintf_r+0xcbc>
    2f18:	e59d002c 	ldr	r0, [sp, #44]	; 0x2c
    2f1c:	e59d101c 	ldr	r1, [sp, #28]
    2f20:	e28d20a4 	add	r2, sp, #164	; 0xa4
    2f24:	eb002d70 	bl	e4ec <__sprint_r>
    2f28:	e3500000 	cmp	r0, #0
    2f2c:	1afffc9c 	bne	21a4 <_vfprintf_r+0x394>
    2f30:	e59d60ac 	ldr	r6, [sp, #172]	; 0xac
    2f34:	e28d5d05 	add	r5, sp, #320	; 0x140
    2f38:	eafffee3 	b	2acc <_vfprintf_r+0xcbc>
    2f3c:	e59d4044 	ldr	r4, [sp, #68]	; 0x44
    2f40:	e3540001 	cmp	r4, #1
    2f44:	e59d40a8 	ldr	r4, [sp, #168]	; 0xa8
    2f48:	e2866001 	add	r6, r6, #1
    2f4c:	e2844001 	add	r4, r4, #1
    2f50:	da000156 	ble	34b0 <_vfprintf_r+0x16a0>
    2f54:	e59dc04c 	ldr	r12, [sp, #76]	; 0x4c
    2f58:	e3540007 	cmp	r4, #7
    2f5c:	e3a03001 	mov	r3, #1
    2f60:	e585c000 	str	r12, [r5]
    2f64:	e5853004 	str	r3, [r5, #4]
    2f68:	e58d60ac 	str	r6, [sp, #172]	; 0xac
    2f6c:	e58d40a8 	str	r4, [sp, #168]	; 0xa8
    2f70:	d2855008 	addle	r5, r5, #8
    2f74:	ca000160 	bgt	34fc <_vfprintf_r+0x16ec>
    2f78:	e59d7064 	ldr	r7, [sp, #100]	; 0x64
    2f7c:	e2844001 	add	r4, r4, #1
    2f80:	e59db058 	ldr	r11, [sp, #88]	; 0x58
    2f84:	e0866007 	add	r6, r6, r7
    2f88:	e3540007 	cmp	r4, #7
    2f8c:	e585b000 	str	r11, [r5]
    2f90:	e5857004 	str	r7, [r5, #4]
    2f94:	e58d60ac 	str	r6, [sp, #172]	; 0xac
    2f98:	e58d40a8 	str	r4, [sp, #168]	; 0xa8
    2f9c:	d2855008 	addle	r5, r5, #8
    2fa0:	ca00015f 	bgt	3524 <_vfprintf_r+0x1714>
    2fa4:	e28d1068 	add	r1, sp, #104	; 0x68
    2fa8:	e8910003 	ldm	r1, {r0, r1}
    2fac:	e3a02000 	mov	r2, #0
    2fb0:	e3a03000 	mov	r3, #0
    2fb4:	eb00407f 	bl	131b8 <__aeabi_dcmpeq>
    2fb8:	e3500000 	cmp	r0, #0
    2fbc:	e59d7044 	ldr	r7, [sp, #68]	; 0x44
    2fc0:	1a00009c 	bne	3238 <_vfprintf_r+0x1428>
    2fc4:	e59dc04c 	ldr	r12, [sp, #76]	; 0x4c
    2fc8:	e2473001 	sub	r3, r7, #1
    2fcc:	e2844001 	add	r4, r4, #1
    2fd0:	e28c2001 	add	r2, r12, #1
    2fd4:	e0866003 	add	r6, r6, r3
    2fd8:	e3540007 	cmp	r4, #7
    2fdc:	e885000c 	stm	r5, {r2, r3}
    2fe0:	e58d60ac 	str	r6, [sp, #172]	; 0xac
    2fe4:	e58d40a8 	str	r4, [sp, #168]	; 0xa8
    2fe8:	ca00015f 	bgt	356c <_vfprintf_r+0x175c>
    2fec:	e2855008 	add	r5, r5, #8
    2ff0:	e59dc070 	ldr	r12, [sp, #112]	; 0x70
    2ff4:	e2844001 	add	r4, r4, #1
    2ff8:	e086600c 	add	r6, r6, r12
    2ffc:	e28d3094 	add	r3, sp, #148	; 0x94
    3000:	e3540007 	cmp	r4, #7
    3004:	e8851008 	stm	r5, {r3, r12}
    3008:	e58d60ac 	str	r6, [sp, #172]	; 0xac
    300c:	e58d40a8 	str	r4, [sp, #168]	; 0xa8
    3010:	dafffef2 	ble	2be0 <_vfprintf_r+0xdd0>
    3014:	e59d002c 	ldr	r0, [sp, #44]	; 0x2c
    3018:	e59d101c 	ldr	r1, [sp, #28]
    301c:	e28d20a4 	add	r2, sp, #164	; 0xa4
    3020:	eb002d31 	bl	e4ec <__sprint_r>
    3024:	e3500000 	cmp	r0, #0
    3028:	1afffc5d 	bne	21a4 <_vfprintf_r+0x394>
    302c:	e28d5d05 	add	r5, sp, #320	; 0x140
    3030:	e59d60ac 	ldr	r6, [sp, #172]	; 0xac
    3034:	eafffeea 	b	2be4 <_vfprintf_r+0xdd4>
    3038:	e59dc054 	ldr	r12, [sp, #84]	; 0x54
    303c:	e58d2038 	str	r2, [sp, #56]	; 0x38
    3040:	e58dc04c 	str	r12, [sp, #76]	; 0x4c
    3044:	eafffced 	b	2400 <_vfprintf_r+0x5f0>
    3048:	e59d002c 	ldr	r0, [sp, #44]	; 0x2c
    304c:	e59d101c 	ldr	r1, [sp, #28]
    3050:	e28d20a4 	add	r2, sp, #164	; 0xa4
    3054:	eb002d24 	bl	e4ec <__sprint_r>
    3058:	e3500000 	cmp	r0, #0
    305c:	1afffc50 	bne	21a4 <_vfprintf_r+0x394>
    3060:	e59d60ac 	ldr	r6, [sp, #172]	; 0xac
    3064:	e28d5d05 	add	r5, sp, #320	; 0x140
    3068:	eafffe94 	b	2ac0 <_vfprintf_r+0xcb0>
    306c:	e59d002c 	ldr	r0, [sp, #44]	; 0x2c
    3070:	e59d101c 	ldr	r1, [sp, #28]
    3074:	e28d20a4 	add	r2, sp, #164	; 0xa4
    3078:	eb002d1b 	bl	e4ec <__sprint_r>
    307c:	e3500000 	cmp	r0, #0
    3080:	e28db0b0 	add	r11, sp, #176	; 0xb0
    3084:	1afffc46 	bne	21a4 <_vfprintf_r+0x394>
    3088:	e59d60ac 	ldr	r6, [sp, #172]	; 0xac
    308c:	e28d5d05 	add	r5, sp, #320	; 0x140
    3090:	eafffe7b 	b	2a84 <_vfprintf_r+0xc74>
    3094:	e59d8088 	ldr	r8, [sp, #136]	; 0x88
    3098:	e3580000 	cmp	r8, #0
    309c:	da000215 	ble	38f8 <_vfprintf_r+0x1ae8>
    30a0:	e59d4060 	ldr	r4, [sp, #96]	; 0x60
    30a4:	e59d7044 	ldr	r7, [sp, #68]	; 0x44
    30a8:	e59dc04c 	ldr	r12, [sp, #76]	; 0x4c
    30ac:	e1570004 	cmp	r7, r4
    30b0:	a1a07004 	movge	r7, r4
    30b4:	e59d4044 	ldr	r4, [sp, #68]	; 0x44
    30b8:	e3570000 	cmp	r7, #0
    30bc:	e08cb004 	add	r11, r12, r4
    30c0:	da000009 	ble	30ec <_vfprintf_r+0x12dc>
    30c4:	e59d40a8 	ldr	r4, [sp, #168]	; 0xa8
    30c8:	e2844001 	add	r4, r4, #1
    30cc:	e0866007 	add	r6, r6, r7
    30d0:	e3540007 	cmp	r4, #7
    30d4:	e585c000 	str	r12, [r5]
    30d8:	e5857004 	str	r7, [r5, #4]
    30dc:	e58d60ac 	str	r6, [sp, #172]	; 0xac
    30e0:	e58d40a8 	str	r4, [sp, #168]	; 0xa8
    30e4:	d2855008 	addle	r5, r5, #8
    30e8:	ca0002b5 	bgt	3bc4 <_vfprintf_r+0x1db4>
    30ec:	e59dc060 	ldr	r12, [sp, #96]	; 0x60
    30f0:	e1c77fc7 	bic	r7, r7, r7, asr #31
    30f4:	e067a00c 	rsb	r10, r7, r12
    30f8:	e35a0000 	cmp	r10, #0
    30fc:	da000095 	ble	3358 <_vfprintf_r+0x1548>
    3100:	e35a0010 	cmp	r10, #16
    3104:	e59d40a8 	ldr	r4, [sp, #168]	; 0xa8
    3108:	e59f708c 	ldr	r7, [pc, #140]	; 319c <_vfprintf_r+0x138c>
    310c:	da000081 	ble	3318 <_vfprintf_r+0x1508>
    3110:	e28d80a4 	add	r8, sp, #164	; 0xa4
    3114:	e58db038 	str	r11, [sp, #56]	; 0x38
    3118:	e3a09010 	mov	r9, #16
    311c:	e1a0b00a 	mov	r11, r10
    3120:	e1a0a008 	mov	r10, r8
    3124:	e59d802c 	ldr	r8, [sp, #44]	; 0x2c
    3128:	ea000002 	b	3138 <_vfprintf_r+0x1328>
    312c:	e24bb010 	sub	r11, r11, #16
    3130:	e35b0010 	cmp	r11, #16
    3134:	da000075 	ble	3310 <_vfprintf_r+0x1500>
    3138:	e2844001 	add	r4, r4, #1
    313c:	e3540007 	cmp	r4, #7
    3140:	e2866010 	add	r6, r6, #16
    3144:	e8850280 	stm	r5, {r7, r9}
    3148:	e58d60ac 	str	r6, [sp, #172]	; 0xac
    314c:	e58d40a8 	str	r4, [sp, #168]	; 0xa8
    3150:	d2855008 	addle	r5, r5, #8
    3154:	dafffff4 	ble	312c <_vfprintf_r+0x131c>
    3158:	e1a00008 	mov	r0, r8
    315c:	e59d101c 	ldr	r1, [sp, #28]
    3160:	e1a0200a 	mov	r2, r10
    3164:	eb002ce0 	bl	e4ec <__sprint_r>
    3168:	e3500000 	cmp	r0, #0
    316c:	1afffc0c 	bne	21a4 <_vfprintf_r+0x394>
    3170:	e28d40a8 	add	r4, sp, #168	; 0xa8
    3174:	e8940050 	ldm	r4, {r4, r6}
    3178:	e28d5d05 	add	r5, sp, #320	; 0x140
    317c:	eaffffea 	b	312c <_vfprintf_r+0x131c>
    3180:	fffffba4 	.word	0xfffffba4
    3184:	00013d60 	.word	0x00013d60
    3188:	00013d80 	.word	0x00013d80
    318c:	00013d84 	.word	0x00013d84
    3190:	00013d90 	.word	0x00013d90
    3194:	00013da4 	.word	0x00013da4
    3198:	00013dc0 	.word	0x00013dc0
    319c:	00013d70 	.word	0x00013d70
    31a0:	00013d88 	.word	0x00013d88
    31a4:	00013d8c 	.word	0x00013d8c
    31a8:	00013db8 	.word	0x00013db8
    31ac:	66666667 	.word	0x66666667
    31b0:	e59d9074 	ldr	r9, [sp, #116]	; 0x74
    31b4:	e3a0000f 	mov	r0, #15
    31b8:	e1a0a226 	lsr	r10, r6, #4
    31bc:	e0062000 	and	r2, r6, r0
    31c0:	e18aae07 	orr	r10, r10, r7, lsl #28
    31c4:	e1a03227 	lsr	r3, r7, #4
    31c8:	e0892002 	add	r2, r9, r2
    31cc:	e1a07003 	mov	r7, r3
    31d0:	e1a0600a 	mov	r6, r10
    31d4:	e5d22000 	ldrb	r2, [r2]
    31d8:	e196b007 	orrs	r11, r6, r7
    31dc:	e1a0300c 	mov	r3, r12
    31e0:	e5cc2000 	strb	r2, [r12]
    31e4:	e24cc001 	sub	r12, r12, #1
    31e8:	1afffff2 	bne	31b8 <_vfprintf_r+0x13a8>
    31ec:	e59dc054 	ldr	r12, [sp, #84]	; 0x54
    31f0:	e063c00c 	rsb	r12, r3, r12
    31f4:	e58d304c 	str	r3, [sp, #76]	; 0x4c
    31f8:	e58dc038 	str	r12, [sp, #56]	; 0x38
    31fc:	eafffc7f 	b	2400 <_vfprintf_r+0x5f0>
    3200:	e3570000 	cmp	r7, #0
    3204:	03560009 	cmpeq	r6, #9
    3208:	8a0000e1 	bhi	3594 <_vfprintf_r+0x1784>
    320c:	e2866030 	add	r6, r6, #48	; 0x30
    3210:	e5cd60d7 	strb	r6, [sp, #215]	; 0xd7
    3214:	e59d705c 	ldr	r7, [sp, #92]	; 0x5c
    3218:	e59d607c 	ldr	r6, [sp, #124]	; 0x7c
    321c:	e58d704c 	str	r7, [sp, #76]	; 0x4c
    3220:	e58d6038 	str	r6, [sp, #56]	; 0x38
    3224:	eafffc75 	b	2400 <_vfprintf_r+0x5f0>
    3228:	e59d6054 	ldr	r6, [sp, #84]	; 0x54
    322c:	e58d3038 	str	r3, [sp, #56]	; 0x38
    3230:	e58d604c 	str	r6, [sp, #76]	; 0x4c
    3234:	eafffc71 	b	2400 <_vfprintf_r+0x5f0>
    3238:	e247a001 	sub	r10, r7, #1
    323c:	e35a0000 	cmp	r10, #0
    3240:	daffff6a 	ble	2ff0 <_vfprintf_r+0x11e0>
    3244:	e35a0010 	cmp	r10, #16
    3248:	e51f70b4 	ldr	r7, [pc, #-180]	; 319c <_vfprintf_r+0x138c>
    324c:	da0000bf 	ble	3550 <_vfprintf_r+0x1740>
    3250:	e28d80a4 	add	r8, sp, #164	; 0xa4
    3254:	e1a03008 	mov	r3, r8
    3258:	e3a09010 	mov	r9, #16
    325c:	e1a08007 	mov	r8, r7
    3260:	e59db02c 	ldr	r11, [sp, #44]	; 0x2c
    3264:	e1a07003 	mov	r7, r3
    3268:	ea000002 	b	3278 <_vfprintf_r+0x1468>
    326c:	e24aa010 	sub	r10, r10, #16
    3270:	e35a0010 	cmp	r10, #16
    3274:	da0000b4 	ble	354c <_vfprintf_r+0x173c>
    3278:	e2844001 	add	r4, r4, #1
    327c:	e3540007 	cmp	r4, #7
    3280:	e2866010 	add	r6, r6, #16
    3284:	e8850300 	stm	r5, {r8, r9}
    3288:	e58d60ac 	str	r6, [sp, #172]	; 0xac
    328c:	e58d40a8 	str	r4, [sp, #168]	; 0xa8
    3290:	d2855008 	addle	r5, r5, #8
    3294:	dafffff4 	ble	326c <_vfprintf_r+0x145c>
    3298:	e1a0000b 	mov	r0, r11
    329c:	e59d101c 	ldr	r1, [sp, #28]
    32a0:	e1a02007 	mov	r2, r7
    32a4:	eb002c90 	bl	e4ec <__sprint_r>
    32a8:	e3500000 	cmp	r0, #0
    32ac:	1afffbbc 	bne	21a4 <_vfprintf_r+0x394>
    32b0:	e28d40a8 	add	r4, sp, #168	; 0xa8
    32b4:	e8940050 	ldm	r4, {r4, r6}
    32b8:	e28d5d05 	add	r5, sp, #320	; 0x140
    32bc:	eaffffea 	b	326c <_vfprintf_r+0x145c>
    32c0:	e1960007 	orrs	r0, r6, r7
    32c4:	159db018 	ldrne	r11, [sp, #24]
    32c8:	13a03030 	movne	r3, #48	; 0x30
    32cc:	138bb002 	orrne	r11, r11, #2
    32d0:	15cd3084 	strbne	r3, [sp, #132]	; 0x84
    32d4:	15cd8085 	strbne	r8, [sp, #133]	; 0x85
    32d8:	158db018 	strne	r11, [sp, #24]
    32dc:	13a02001 	movne	r2, #1
    32e0:	03a02000 	moveq	r2, #0
    32e4:	e3a03002 	mov	r3, #2
    32e8:	eafffcdd 	b	2664 <_vfprintf_r+0x854>
    32ec:	e1a07008 	mov	r7, r8
    32f0:	e2844001 	add	r4, r4, #1
    32f4:	e086600a 	add	r6, r6, r10
    32f8:	e3540007 	cmp	r4, #7
    32fc:	e8850480 	stm	r5, {r7, r10}
    3300:	e58d60ac 	str	r6, [sp, #172]	; 0xac
    3304:	e58d40a8 	str	r4, [sp, #168]	; 0xa8
    3308:	dafffe34 	ble	2be0 <_vfprintf_r+0xdd0>
    330c:	eaffff40 	b	3014 <_vfprintf_r+0x1204>
    3310:	e1a0a00b 	mov	r10, r11
    3314:	e59db038 	ldr	r11, [sp, #56]	; 0x38
    3318:	e2844001 	add	r4, r4, #1
    331c:	e086600a 	add	r6, r6, r10
    3320:	e3540007 	cmp	r4, #7
    3324:	e8850480 	stm	r5, {r7, r10}
    3328:	e58d60ac 	str	r6, [sp, #172]	; 0xac
    332c:	e58d40a8 	str	r4, [sp, #168]	; 0xa8
    3330:	d2855008 	addle	r5, r5, #8
    3334:	da000007 	ble	3358 <_vfprintf_r+0x1548>
    3338:	e59d002c 	ldr	r0, [sp, #44]	; 0x2c
    333c:	e59d101c 	ldr	r1, [sp, #28]
    3340:	e28d20a4 	add	r2, sp, #164	; 0xa4
    3344:	eb002c68 	bl	e4ec <__sprint_r>
    3348:	e3500000 	cmp	r0, #0
    334c:	1afffb94 	bne	21a4 <_vfprintf_r+0x394>
    3350:	e59d60ac 	ldr	r6, [sp, #172]	; 0xac
    3354:	e28d5d05 	add	r5, sp, #320	; 0x140
    3358:	e59d3088 	ldr	r3, [sp, #136]	; 0x88
    335c:	e59d4044 	ldr	r4, [sp, #68]	; 0x44
    3360:	e59d704c 	ldr	r7, [sp, #76]	; 0x4c
    3364:	e59dc060 	ldr	r12, [sp, #96]	; 0x60
    3368:	e1530004 	cmp	r3, r4
    336c:	e087800c 	add	r8, r7, r12
    3370:	ba000038 	blt	3458 <_vfprintf_r+0x1648>
    3374:	e59d4018 	ldr	r4, [sp, #24]
    3378:	e3140001 	tst	r4, #1
    337c:	1a000035 	bne	3458 <_vfprintf_r+0x1648>
    3380:	e59d4044 	ldr	r4, [sp, #68]	; 0x44
    3384:	e068700b 	rsb	r7, r8, r11
    3388:	e0633004 	rsb	r3, r3, r4
    338c:	e1530007 	cmp	r3, r7
    3390:	b1a07003 	movlt	r7, r3
    3394:	a1a07007 	movge	r7, r7
    3398:	e3570000 	cmp	r7, #0
    339c:	da000009 	ble	33c8 <_vfprintf_r+0x15b8>
    33a0:	e59d40a8 	ldr	r4, [sp, #168]	; 0xa8
    33a4:	e2844001 	add	r4, r4, #1
    33a8:	e0866007 	add	r6, r6, r7
    33ac:	e3540007 	cmp	r4, #7
    33b0:	e5858000 	str	r8, [r5]
    33b4:	e5857004 	str	r7, [r5, #4]
    33b8:	e58d60ac 	str	r6, [sp, #172]	; 0xac
    33bc:	e58d40a8 	str	r4, [sp, #168]	; 0xa8
    33c0:	d2855008 	addle	r5, r5, #8
    33c4:	ca000208 	bgt	3bec <_vfprintf_r+0x1ddc>
    33c8:	e1c77fc7 	bic	r7, r7, r7, asr #31
    33cc:	e067a003 	rsb	r10, r7, r3
    33d0:	e35a0000 	cmp	r10, #0
    33d4:	dafffe02 	ble	2be4 <_vfprintf_r+0xdd4>
    33d8:	e35a0010 	cmp	r10, #16
    33dc:	e59d40a8 	ldr	r4, [sp, #168]	; 0xa8
    33e0:	e51f724c 	ldr	r7, [pc, #-588]	; 319c <_vfprintf_r+0x138c>
    33e4:	daffffc1 	ble	32f0 <_vfprintf_r+0x14e0>
    33e8:	e28d80a4 	add	r8, sp, #164	; 0xa4
    33ec:	e1a03008 	mov	r3, r8
    33f0:	e3a09010 	mov	r9, #16
    33f4:	e1a08007 	mov	r8, r7
    33f8:	e59db02c 	ldr	r11, [sp, #44]	; 0x2c
    33fc:	e1a07003 	mov	r7, r3
    3400:	ea000002 	b	3410 <_vfprintf_r+0x1600>
    3404:	e24aa010 	sub	r10, r10, #16
    3408:	e35a0010 	cmp	r10, #16
    340c:	daffffb6 	ble	32ec <_vfprintf_r+0x14dc>
    3410:	e2844001 	add	r4, r4, #1
    3414:	e3540007 	cmp	r4, #7
    3418:	e2866010 	add	r6, r6, #16
    341c:	e8850300 	stm	r5, {r8, r9}
    3420:	e58d60ac 	str	r6, [sp, #172]	; 0xac
    3424:	e58d40a8 	str	r4, [sp, #168]	; 0xa8
    3428:	d2855008 	addle	r5, r5, #8
    342c:	dafffff4 	ble	3404 <_vfprintf_r+0x15f4>
    3430:	e1a0000b 	mov	r0, r11
    3434:	e59d101c 	ldr	r1, [sp, #28]
    3438:	e1a02007 	mov	r2, r7
    343c:	eb002c2a 	bl	e4ec <__sprint_r>
    3440:	e3500000 	cmp	r0, #0
    3444:	1afffb56 	bne	21a4 <_vfprintf_r+0x394>
    3448:	e28d40a8 	add	r4, sp, #168	; 0xa8
    344c:	e8940050 	ldm	r4, {r4, r6}
    3450:	e28d5d05 	add	r5, sp, #320	; 0x140
    3454:	eaffffea 	b	3404 <_vfprintf_r+0x15f4>
    3458:	e59d40a8 	ldr	r4, [sp, #168]	; 0xa8
    345c:	e59d7064 	ldr	r7, [sp, #100]	; 0x64
    3460:	e2844001 	add	r4, r4, #1
    3464:	e59dc058 	ldr	r12, [sp, #88]	; 0x58
    3468:	e0866007 	add	r6, r6, r7
    346c:	e3540007 	cmp	r4, #7
    3470:	e585c000 	str	r12, [r5]
    3474:	e5857004 	str	r7, [r5, #4]
    3478:	e58d60ac 	str	r6, [sp, #172]	; 0xac
    347c:	e58d40a8 	str	r4, [sp, #168]	; 0xa8
    3480:	d2855008 	addle	r5, r5, #8
    3484:	daffffbd 	ble	3380 <_vfprintf_r+0x1570>
    3488:	e59d002c 	ldr	r0, [sp, #44]	; 0x2c
    348c:	e59d101c 	ldr	r1, [sp, #28]
    3490:	e28d20a4 	add	r2, sp, #164	; 0xa4
    3494:	eb002c14 	bl	e4ec <__sprint_r>
    3498:	e3500000 	cmp	r0, #0
    349c:	1afffb40 	bne	21a4 <_vfprintf_r+0x394>
    34a0:	e59d3088 	ldr	r3, [sp, #136]	; 0x88
    34a4:	e59d60ac 	ldr	r6, [sp, #172]	; 0xac
    34a8:	e28d5d05 	add	r5, sp, #320	; 0x140
    34ac:	eaffffb3 	b	3380 <_vfprintf_r+0x1570>
    34b0:	e59d7018 	ldr	r7, [sp, #24]
    34b4:	e3170001 	tst	r7, #1
    34b8:	1afffea5 	bne	2f54 <_vfprintf_r+0x1144>
    34bc:	e59d704c 	ldr	r7, [sp, #76]	; 0x4c
    34c0:	e3a03001 	mov	r3, #1
    34c4:	e3540007 	cmp	r4, #7
    34c8:	e5857000 	str	r7, [r5]
    34cc:	e5853004 	str	r3, [r5, #4]
    34d0:	e58d60ac 	str	r6, [sp, #172]	; 0xac
    34d4:	e58d40a8 	str	r4, [sp, #168]	; 0xa8
    34d8:	dafffec3 	ble	2fec <_vfprintf_r+0x11dc>
    34dc:	e59d002c 	ldr	r0, [sp, #44]	; 0x2c
    34e0:	e59d101c 	ldr	r1, [sp, #28]
    34e4:	e28d20a4 	add	r2, sp, #164	; 0xa4
    34e8:	eb002bff 	bl	e4ec <__sprint_r>
    34ec:	e3500000 	cmp	r0, #0
    34f0:	e28db0b0 	add	r11, sp, #176	; 0xb0
    34f4:	0a000022 	beq	3584 <_vfprintf_r+0x1774>
    34f8:	eafffb29 	b	21a4 <_vfprintf_r+0x394>
    34fc:	e59d002c 	ldr	r0, [sp, #44]	; 0x2c
    3500:	e59d101c 	ldr	r1, [sp, #28]
    3504:	e28d20a4 	add	r2, sp, #164	; 0xa4
    3508:	eb002bf7 	bl	e4ec <__sprint_r>
    350c:	e3500000 	cmp	r0, #0
    3510:	1afffb23 	bne	21a4 <_vfprintf_r+0x394>
    3514:	e28d40a8 	add	r4, sp, #168	; 0xa8
    3518:	e8940050 	ldm	r4, {r4, r6}
    351c:	e28d5d05 	add	r5, sp, #320	; 0x140
    3520:	eafffe94 	b	2f78 <_vfprintf_r+0x1168>
    3524:	e59d002c 	ldr	r0, [sp, #44]	; 0x2c
    3528:	e59d101c 	ldr	r1, [sp, #28]
    352c:	e28d20a4 	add	r2, sp, #164	; 0xa4
    3530:	eb002bed 	bl	e4ec <__sprint_r>
    3534:	e3500000 	cmp	r0, #0
    3538:	1afffb19 	bne	21a4 <_vfprintf_r+0x394>
    353c:	e28d40a8 	add	r4, sp, #168	; 0xa8
    3540:	e8940050 	ldm	r4, {r4, r6}
    3544:	e28d5d05 	add	r5, sp, #320	; 0x140
    3548:	eafffe95 	b	2fa4 <_vfprintf_r+0x1194>
    354c:	e1a07008 	mov	r7, r8
    3550:	e2844001 	add	r4, r4, #1
    3554:	e086600a 	add	r6, r6, r10
    3558:	e3540007 	cmp	r4, #7
    355c:	e8850480 	stm	r5, {r7, r10}
    3560:	e58d60ac 	str	r6, [sp, #172]	; 0xac
    3564:	e58d40a8 	str	r4, [sp, #168]	; 0xa8
    3568:	dafffe9f 	ble	2fec <_vfprintf_r+0x11dc>
    356c:	e59d002c 	ldr	r0, [sp, #44]	; 0x2c
    3570:	e59d101c 	ldr	r1, [sp, #28]
    3574:	e28d20a4 	add	r2, sp, #164	; 0xa4
    3578:	eb002bdb 	bl	e4ec <__sprint_r>
    357c:	e3500000 	cmp	r0, #0
    3580:	1afffb07 	bne	21a4 <_vfprintf_r+0x394>
    3584:	e28d40a8 	add	r4, sp, #168	; 0xa8
    3588:	e28d5d05 	add	r5, sp, #320	; 0x140
    358c:	e8940050 	ldm	r4, {r4, r6}
    3590:	eafffe96 	b	2ff0 <_vfprintf_r+0x11e0>
    3594:	e59da05c 	ldr	r10, [sp, #92]	; 0x5c
    3598:	e1a00006 	mov	r0, r6
    359c:	e1a01007 	mov	r1, r7
    35a0:	e3a0200a 	mov	r2, #10
    35a4:	e3a03000 	mov	r3, #0
    35a8:	eb003fb9 	bl	13494 <__aeabi_uldivmod>
    35ac:	e2822030 	add	r2, r2, #48	; 0x30
    35b0:	e5ca2000 	strb	r2, [r10]
    35b4:	e1a00006 	mov	r0, r6
    35b8:	e1a01007 	mov	r1, r7
    35bc:	e3a0200a 	mov	r2, #10
    35c0:	e3a03000 	mov	r3, #0
    35c4:	eb003fb2 	bl	13494 <__aeabi_uldivmod>
    35c8:	e1a06000 	mov	r6, r0
    35cc:	e1a07001 	mov	r7, r1
    35d0:	e196b007 	orrs	r11, r6, r7
    35d4:	e1a0900a 	mov	r9, r10
    35d8:	e24aa001 	sub	r10, r10, #1
    35dc:	1affffed 	bne	3598 <_vfprintf_r+0x1788>
    35e0:	e59dc054 	ldr	r12, [sp, #84]	; 0x54
    35e4:	e069c00c 	rsb	r12, r9, r12
    35e8:	e58d904c 	str	r9, [sp, #76]	; 0x4c
    35ec:	e58dc038 	str	r12, [sp, #56]	; 0x38
    35f0:	eafffb82 	b	2400 <_vfprintf_r+0x5f0>
    35f4:	e3520030 	cmp	r2, #48	; 0x30
    35f8:	13a02030 	movne	r2, #48	; 0x30
    35fc:	059db054 	ldreq	r11, [sp, #84]	; 0x54
    3600:	15432001 	strbne	r2, [r3, #-1]
    3604:	059dc04c 	ldreq	r12, [sp, #76]	; 0x4c
    3608:	159d3054 	ldrne	r3, [sp, #84]	; 0x54
    360c:	006cb00b 	rsbeq	r11, r12, r11
    3610:	106c3003 	rsbne	r3, r12, r3
    3614:	058db038 	streq	r11, [sp, #56]	; 0x38
    3618:	158dc04c 	strne	r12, [sp, #76]	; 0x4c
    361c:	158d3038 	strne	r3, [sp, #56]	; 0x38
    3620:	eafffb76 	b	2400 <_vfprintf_r+0x5f0>
    3624:	e2766000 	rsbs	r6, r6, #0
    3628:	e2e77000 	rsc	r7, r7, #0
    362c:	e3a0302d 	mov	r3, #45	; 0x2d
    3630:	e1962007 	orrs	r2, r6, r7
    3634:	e5cd3083 	strb	r3, [sp, #131]	; 0x83
    3638:	03a02000 	moveq	r2, #0
    363c:	13a02001 	movne	r2, #1
    3640:	e3a03001 	mov	r3, #1
    3644:	eafffb4b 	b	2378 <_vfprintf_r+0x568>
    3648:	e5d38000 	ldrb	r8, [r3]
    364c:	eafffa52 	b	1f9c <_vfprintf_r+0x18c>
    3650:	eb0019b5 	bl	9d2c <__fpclassifyd>
    3654:	e3500000 	cmp	r0, #0
    3658:	0a000111 	beq	3aa4 <_vfprintf_r+0x1c94>
    365c:	e3740001 	cmn	r4, #1
    3660:	e3c89020 	bic	r9, r8, #32
    3664:	03a04006 	moveq	r4, #6
    3668:	0a000003 	beq	367c <_vfprintf_r+0x186c>
    366c:	e3590047 	cmp	r9, #71	; 0x47
    3670:	1a000001 	bne	367c <_vfprintf_r+0x186c>
    3674:	e3540000 	cmp	r4, #0
    3678:	03a04001 	moveq	r4, #1
    367c:	e59d6018 	ldr	r6, [sp, #24]
    3680:	e3570000 	cmp	r7, #0
    3684:	e3866c01 	orr	r6, r6, #256	; 0x100
    3688:	b2877102 	addlt	r7, r7, #-2147483648	; 0x80000000
    368c:	b3a0b02d 	movlt	r11, #45	; 0x2d
    3690:	a3a0b000 	movge	r11, #0
    3694:	e2593046 	subs	r3, r9, #70	; 0x46
    3698:	e58d6040 	str	r6, [sp, #64]	; 0x40
    369c:	e2736000 	rsbs	r6, r3, #0
    36a0:	e0b66003 	adcs	r6, r6, r3
    36a4:	e3560000 	cmp	r6, #0
    36a8:	1a00016a 	bne	3c58 <_vfprintf_r+0x1e48>
    36ac:	e3590045 	cmp	r9, #69	; 0x45
    36b0:	1a0001c4 	bne	3dc8 <_vfprintf_r+0x1fb8>
    36b4:	e28d3090 	add	r3, sp, #144	; 0x90
    36b8:	e58da020 	str	r10, [sp, #32]
    36bc:	e2846001 	add	r6, r4, #1
    36c0:	e28d1088 	add	r1, sp, #136	; 0x88
    36c4:	e28d208c 	add	r2, sp, #140	; 0x8c
    36c8:	e58d7024 	str	r7, [sp, #36]	; 0x24
    36cc:	e3a00002 	mov	r0, #2
    36d0:	e88d0041 	stm	sp, {r0, r6}
    36d4:	e58d200c 	str	r2, [sp, #12]
    36d8:	e58d3010 	str	r3, [sp, #16]
    36dc:	e58d1008 	str	r1, [sp, #8]
    36e0:	e59d002c 	ldr	r0, [sp, #44]	; 0x2c
    36e4:	e28d3020 	add	r3, sp, #32
    36e8:	e893000c 	ldm	r3, {r2, r3}
    36ec:	eb00092b 	bl	5ba0 <_dtoa_r>
    36f0:	e58d004c 	str	r0, [sp, #76]	; 0x4c
    36f4:	e0806006 	add	r6, r0, r6
    36f8:	e1a0000a 	mov	r0, r10
    36fc:	e1a01007 	mov	r1, r7
    3700:	e3a02000 	mov	r2, #0
    3704:	e3a03000 	mov	r3, #0
    3708:	eb003eaa 	bl	131b8 <__aeabi_dcmpeq>
    370c:	e3500000 	cmp	r0, #0
    3710:	1a000008 	bne	3738 <_vfprintf_r+0x1928>
    3714:	e59d3090 	ldr	r3, [sp, #144]	; 0x90
    3718:	e1560003 	cmp	r6, r3
    371c:	91a06003 	movls	r6, r3
    3720:	9a000004 	bls	3738 <_vfprintf_r+0x1928>
    3724:	e3a02030 	mov	r2, #48	; 0x30
    3728:	e4c32001 	strb	r2, [r3], #1
    372c:	e1530006 	cmp	r3, r6
    3730:	e58d3090 	str	r3, [sp, #144]	; 0x90
    3734:	1afffffb 	bne	3728 <_vfprintf_r+0x1918>
    3738:	e59d704c 	ldr	r7, [sp, #76]	; 0x4c
    373c:	e3590047 	cmp	r9, #71	; 0x47
    3740:	e0676006 	rsb	r6, r7, r6
    3744:	e58d6044 	str	r6, [sp, #68]	; 0x44
    3748:	0a000163 	beq	3cdc <_vfprintf_r+0x1ecc>
    374c:	e3580065 	cmp	r8, #101	; 0x65
    3750:	da000201 	ble	3f5c <_vfprintf_r+0x214c>
    3754:	e3580066 	cmp	r8, #102	; 0x66
    3758:	e59d3088 	ldr	r3, [sp, #136]	; 0x88
    375c:	0a0001a5 	beq	3df8 <_vfprintf_r+0x1fe8>
    3760:	e59dc044 	ldr	r12, [sp, #68]	; 0x44
    3764:	e153000c 	cmp	r3, r12
    3768:	ba000198 	blt	3dd0 <_vfprintf_r+0x1fc0>
    376c:	e59d4018 	ldr	r4, [sp, #24]
    3770:	e3140001 	tst	r4, #1
    3774:	12837001 	addne	r7, r3, #1
    3778:	01c36fc3 	biceq	r6, r3, r3, asr #31
    377c:	11c7cfc7 	bicne	r12, r7, r7, asr #31
    3780:	058d6020 	streq	r6, [sp, #32]
    3784:	058d3038 	streq	r3, [sp, #56]	; 0x38
    3788:	158d7038 	strne	r7, [sp, #56]	; 0x38
    378c:	158dc020 	strne	r12, [sp, #32]
    3790:	e3a08067 	mov	r8, #103	; 0x67
    3794:	e58d3060 	str	r3, [sp, #96]	; 0x60
    3798:	e35b0000 	cmp	r11, #0
    379c:	0a000128 	beq	3c44 <_vfprintf_r+0x1e34>
    37a0:	e59db040 	ldr	r11, [sp, #64]	; 0x40
    37a4:	e3a0302d 	mov	r3, #45	; 0x2d
    37a8:	e3a0c000 	mov	r12, #0
    37ac:	e5cd3083 	strb	r3, [sp, #131]	; 0x83
    37b0:	e58db018 	str	r11, [sp, #24]
    37b4:	e58dc040 	str	r12, [sp, #64]	; 0x40
    37b8:	eafffb1a 	b	2428 <_vfprintf_r+0x618>
    37bc:	e59dc03c 	ldr	r12, [sp, #60]	; 0x3c
    37c0:	e28c1007 	add	r1, r12, #7
    37c4:	e3c11007 	bic	r1, r1, #7
    37c8:	e591a000 	ldr	r10, [r1]
    37cc:	e5917004 	ldr	r7, [r1, #4]
    37d0:	e2811008 	add	r1, r1, #8
    37d4:	e58d103c 	str	r1, [sp, #60]	; 0x3c
    37d8:	e1a0000a 	mov	r0, r10
    37dc:	e1a01007 	mov	r1, r7
    37e0:	e58d0068 	str	r0, [sp, #104]	; 0x68
    37e4:	e58d106c 	str	r1, [sp, #108]	; 0x6c
    37e8:	eafffb6a 	b	2598 <_vfprintf_r+0x788>
    37ec:	e59d7018 	ldr	r7, [sp, #24]
    37f0:	e3170010 	tst	r7, #16
    37f4:	1a000009 	bne	3820 <_vfprintf_r+0x1a10>
    37f8:	e59d4018 	ldr	r4, [sp, #24]
    37fc:	e3140040 	tst	r4, #64	; 0x40
    3800:	0a000006 	beq	3820 <_vfprintf_r+0x1a10>
    3804:	e59d603c 	ldr	r6, [sp, #60]	; 0x3c
    3808:	e59d7034 	ldr	r7, [sp, #52]	; 0x34
    380c:	e5963000 	ldr	r3, [r6]
    3810:	e2866004 	add	r6, r6, #4
    3814:	e58d603c 	str	r6, [sp, #60]	; 0x3c
    3818:	e1c370b0 	strh	r7, [r3]
    381c:	eafff9b3 	b	1ef0 <_vfprintf_r+0xe0>
    3820:	e59db03c 	ldr	r11, [sp, #60]	; 0x3c
    3824:	e59dc034 	ldr	r12, [sp, #52]	; 0x34
    3828:	e59b3000 	ldr	r3, [r11]
    382c:	e28bb004 	add	r11, r11, #4
    3830:	e58db03c 	str	r11, [sp, #60]	; 0x3c
    3834:	e583c000 	str	r12, [r3]
    3838:	eafff9ac 	b	1ef0 <_vfprintf_r+0xe0>
    383c:	e59dc018 	ldr	r12, [sp, #24]
    3840:	e31c0040 	tst	r12, #64	; 0x40
    3844:	0a00008d 	beq	3a80 <_vfprintf_r+0x1c70>
    3848:	e59d603c 	ldr	r6, [sp, #60]	; 0x3c
    384c:	e1d630f0 	ldrsh	r3, [r6]
    3850:	eafffc4a 	b	2980 <_vfprintf_r+0xb70>
    3854:	e59dc018 	ldr	r12, [sp, #24]
    3858:	e31c0040 	tst	r12, #64	; 0x40
    385c:	0a000080 	beq	3a64 <_vfprintf_r+0x1c54>
    3860:	e59d603c 	ldr	r6, [sp, #60]	; 0x3c
    3864:	e59db03c 	ldr	r11, [sp, #60]	; 0x3c
    3868:	e1d630b0 	ldrh	r3, [r6]
    386c:	e28bb004 	add	r11, r11, #4
    3870:	e1a06003 	mov	r6, r3
    3874:	e3a07000 	mov	r7, #0
    3878:	e58db03c 	str	r11, [sp, #60]	; 0x3c
    387c:	eafffb99 	b	26e8 <_vfprintf_r+0x8d8>
    3880:	e59dc018 	ldr	r12, [sp, #24]
    3884:	e31c0040 	tst	r12, #64	; 0x40
    3888:	0a00006b 	beq	3a3c <_vfprintf_r+0x1c2c>
    388c:	e59d603c 	ldr	r6, [sp, #60]	; 0x3c
    3890:	e1d620b0 	ldrh	r2, [r6]
    3894:	eafffc17 	b	28f8 <_vfprintf_r+0xae8>
    3898:	e59dc018 	ldr	r12, [sp, #24]
    389c:	e21c3040 	ands	r3, r12, #64	; 0x40
    38a0:	0a00005c 	beq	3a18 <_vfprintf_r+0x1c08>
    38a4:	e59d603c 	ldr	r6, [sp, #60]	; 0x3c
    38a8:	e59db03c 	ldr	r11, [sp, #60]	; 0x3c
    38ac:	e1d620b0 	ldrh	r2, [r6]
    38b0:	e3a07000 	mov	r7, #0
    38b4:	e1a06002 	mov	r6, r2
    38b8:	e28bb004 	add	r11, r11, #4
    38bc:	e0522007 	subs	r2, r2, r7
    38c0:	13a02001 	movne	r2, #1
    38c4:	e58db03c 	str	r11, [sp, #60]	; 0x3c
    38c8:	e1a03001 	mov	r3, r1
    38cc:	eafffb64 	b	2664 <_vfprintf_r+0x854>
    38d0:	e59d002c 	ldr	r0, [sp, #44]	; 0x2c
    38d4:	e59d101c 	ldr	r1, [sp, #28]
    38d8:	e28d20a4 	add	r2, sp, #164	; 0xa4
    38dc:	eb002b02 	bl	e4ec <__sprint_r>
    38e0:	e3500000 	cmp	r0, #0
    38e4:	e28d40b0 	add	r4, sp, #176	; 0xb0
    38e8:	1afffa2d 	bne	21a4 <_vfprintf_r+0x394>
    38ec:	e59d60ac 	ldr	r6, [sp, #172]	; 0xac
    38f0:	e28d5d05 	add	r5, sp, #320	; 0x140
    38f4:	eafffd16 	b	2d54 <_vfprintf_r+0xf44>
    38f8:	e59d40a8 	ldr	r4, [sp, #168]	; 0xa8
    38fc:	e51f376c 	ldr	r3, [pc, #-1900]	; 3198 <_vfprintf_r+0x1388>
    3900:	e2844001 	add	r4, r4, #1
    3904:	e5853000 	str	r3, [r5]
    3908:	e2866001 	add	r6, r6, #1
    390c:	e3540007 	cmp	r4, #7
    3910:	e3a03001 	mov	r3, #1
    3914:	e5853004 	str	r3, [r5, #4]
    3918:	e58d60ac 	str	r6, [sp, #172]	; 0xac
    391c:	e58d40a8 	str	r4, [sp, #168]	; 0xa8
    3920:	d2855008 	addle	r5, r5, #8
    3924:	ca000074 	bgt	3afc <_vfprintf_r+0x1cec>
    3928:	e3580000 	cmp	r8, #0
    392c:	0a00006b 	beq	3ae0 <_vfprintf_r+0x1cd0>
    3930:	e59d40a8 	ldr	r4, [sp, #168]	; 0xa8
    3934:	e59dc064 	ldr	r12, [sp, #100]	; 0x64
    3938:	e2844001 	add	r4, r4, #1
    393c:	e59d7058 	ldr	r7, [sp, #88]	; 0x58
    3940:	e086600c 	add	r6, r6, r12
    3944:	e3540007 	cmp	r4, #7
    3948:	e8851080 	stm	r5, {r7, r12}
    394c:	e58d60ac 	str	r6, [sp, #172]	; 0xac
    3950:	e58d40a8 	str	r4, [sp, #168]	; 0xa8
    3954:	d2855008 	addle	r5, r5, #8
    3958:	ca00010e 	bgt	3d98 <_vfprintf_r+0x1f88>
    395c:	e2688000 	rsb	r8, r8, #0
    3960:	e3580000 	cmp	r8, #0
    3964:	da00008a 	ble	3b94 <_vfprintf_r+0x1d84>
    3968:	e3580010 	cmp	r8, #16
    396c:	e51f77d8 	ldr	r7, [pc, #-2008]	; 319c <_vfprintf_r+0x138c>
    3970:	da000076 	ble	3b50 <_vfprintf_r+0x1d40>
    3974:	e3a0a010 	mov	r10, #16
    3978:	e28d90a4 	add	r9, sp, #164	; 0xa4
    397c:	e59db02c 	ldr	r11, [sp, #44]	; 0x2c
    3980:	ea000002 	b	3990 <_vfprintf_r+0x1b80>
    3984:	e2488010 	sub	r8, r8, #16
    3988:	e3580010 	cmp	r8, #16
    398c:	da00006f 	ble	3b50 <_vfprintf_r+0x1d40>
    3990:	e2844001 	add	r4, r4, #1
    3994:	e3540007 	cmp	r4, #7
    3998:	e2866010 	add	r6, r6, #16
    399c:	e8850480 	stm	r5, {r7, r10}
    39a0:	e58d60ac 	str	r6, [sp, #172]	; 0xac
    39a4:	e58d40a8 	str	r4, [sp, #168]	; 0xa8
    39a8:	d2855008 	addle	r5, r5, #8
    39ac:	dafffff4 	ble	3984 <_vfprintf_r+0x1b74>
    39b0:	e1a0000b 	mov	r0, r11
    39b4:	e59d101c 	ldr	r1, [sp, #28]
    39b8:	e1a02009 	mov	r2, r9
    39bc:	eb002aca 	bl	e4ec <__sprint_r>
    39c0:	e3500000 	cmp	r0, #0
    39c4:	1afff9f6 	bne	21a4 <_vfprintf_r+0x394>
    39c8:	e28d40a8 	add	r4, sp, #168	; 0xa8
    39cc:	e8940050 	ldm	r4, {r4, r6}
    39d0:	e28d5d05 	add	r5, sp, #320	; 0x140
    39d4:	eaffffea 	b	3984 <_vfprintf_r+0x1b74>
    39d8:	e59d30ac 	ldr	r3, [sp, #172]	; 0xac
    39dc:	e3530000 	cmp	r3, #0
    39e0:	e59d901c 	ldr	r9, [sp, #28]
    39e4:	0afff9ef 	beq	21a8 <_vfprintf_r+0x398>
    39e8:	e59d002c 	ldr	r0, [sp, #44]	; 0x2c
    39ec:	e1a01009 	mov	r1, r9
    39f0:	e28d20a4 	add	r2, sp, #164	; 0xa4
    39f4:	eb002abc 	bl	e4ec <__sprint_r>
    39f8:	eafff9ea 	b	21a8 <_vfprintf_r+0x398>
    39fc:	e59db038 	ldr	r11, [sp, #56]	; 0x38
    3a00:	e1cbbfcb 	bic	r11, r11, r11, asr #31
    3a04:	e58db020 	str	r11, [sp, #32]
    3a08:	e5dd3083 	ldrb	r3, [sp, #131]	; 0x83
    3a0c:	e58d703c 	str	r7, [sp, #60]	; 0x3c
    3a10:	e58d6060 	str	r6, [sp, #96]	; 0x60
    3a14:	eafffa81 	b	2420 <_vfprintf_r+0x610>
    3a18:	e59dc03c 	ldr	r12, [sp, #60]	; 0x3c
    3a1c:	e59c2000 	ldr	r2, [r12]
    3a20:	e3a07000 	mov	r7, #0
    3a24:	e1a06002 	mov	r6, r2
    3a28:	e28cc004 	add	r12, r12, #4
    3a2c:	e0522007 	subs	r2, r2, r7
    3a30:	13a02001 	movne	r2, #1
    3a34:	e58dc03c 	str	r12, [sp, #60]	; 0x3c
    3a38:	eafffb09 	b	2664 <_vfprintf_r+0x854>
    3a3c:	e59dc03c 	ldr	r12, [sp, #60]	; 0x3c
    3a40:	e59c2000 	ldr	r2, [r12]
    3a44:	e3a07000 	mov	r7, #0
    3a48:	e1a06002 	mov	r6, r2
    3a4c:	e28cc004 	add	r12, r12, #4
    3a50:	e0522007 	subs	r2, r2, r7
    3a54:	13a02001 	movne	r2, #1
    3a58:	e58dc03c 	str	r12, [sp, #60]	; 0x3c
    3a5c:	e3a03001 	mov	r3, #1
    3a60:	eafffaff 	b	2664 <_vfprintf_r+0x854>
    3a64:	e59dc03c 	ldr	r12, [sp, #60]	; 0x3c
    3a68:	e59c3000 	ldr	r3, [r12]
    3a6c:	e28cc004 	add	r12, r12, #4
    3a70:	e1a06003 	mov	r6, r3
    3a74:	e3a07000 	mov	r7, #0
    3a78:	e58dc03c 	str	r12, [sp, #60]	; 0x3c
    3a7c:	eafffb19 	b	26e8 <_vfprintf_r+0x8d8>
    3a80:	e59dc03c 	ldr	r12, [sp, #60]	; 0x3c
    3a84:	e59c3000 	ldr	r3, [r12]
    3a88:	e28cc004 	add	r12, r12, #4
    3a8c:	e1a07fc3 	asr	r7, r3, #31
    3a90:	e1a06003 	mov	r6, r3
    3a94:	e1a02003 	mov	r2, r3
    3a98:	e58dc03c 	str	r12, [sp, #60]	; 0x3c
    3a9c:	e1a03007 	mov	r3, r7
    3aa0:	eafffa2d 	b	235c <_vfprintf_r+0x54c>
    3aa4:	e51f390c 	ldr	r3, [pc, #-2316]	; 31a0 <_vfprintf_r+0x1390>
    3aa8:	e59dc018 	ldr	r12, [sp, #24]
    3aac:	e51f2910 	ldr	r2, [pc, #-2320]	; 31a4 <_vfprintf_r+0x1394>
    3ab0:	e3580047 	cmp	r8, #71	; 0x47
    3ab4:	e3a0b003 	mov	r11, #3
    3ab8:	d1a02003 	movle	r2, r3
    3abc:	e3ccc080 	bic	r12, r12, #128	; 0x80
    3ac0:	e58db020 	str	r11, [sp, #32]
    3ac4:	e58d0040 	str	r0, [sp, #64]	; 0x40
    3ac8:	e58d204c 	str	r2, [sp, #76]	; 0x4c
    3acc:	e58dc018 	str	r12, [sp, #24]
    3ad0:	e5dd3083 	ldrb	r3, [sp, #131]	; 0x83
    3ad4:	e58db038 	str	r11, [sp, #56]	; 0x38
    3ad8:	e58d0060 	str	r0, [sp, #96]	; 0x60
    3adc:	eafffa4f 	b	2420 <_vfprintf_r+0x610>
    3ae0:	e59d7044 	ldr	r7, [sp, #68]	; 0x44
    3ae4:	e3570000 	cmp	r7, #0
    3ae8:	1affff90 	bne	3930 <_vfprintf_r+0x1b20>
    3aec:	e59db018 	ldr	r11, [sp, #24]
    3af0:	e31b0001 	tst	r11, #1
    3af4:	0afffc3a 	beq	2be4 <_vfprintf_r+0xdd4>
    3af8:	eaffff8c 	b	3930 <_vfprintf_r+0x1b20>
    3afc:	e59d002c 	ldr	r0, [sp, #44]	; 0x2c
    3b00:	e59d101c 	ldr	r1, [sp, #28]
    3b04:	e28d20a4 	add	r2, sp, #164	; 0xa4
    3b08:	eb002a77 	bl	e4ec <__sprint_r>
    3b0c:	e3500000 	cmp	r0, #0
    3b10:	e28d40b0 	add	r4, sp, #176	; 0xb0
    3b14:	1afff9a2 	bne	21a4 <_vfprintf_r+0x394>
    3b18:	e59d8088 	ldr	r8, [sp, #136]	; 0x88
    3b1c:	e59d60ac 	ldr	r6, [sp, #172]	; 0xac
    3b20:	e28d5d05 	add	r5, sp, #320	; 0x140
    3b24:	eaffff7f 	b	3928 <_vfprintf_r+0x1b18>
    3b28:	e59d002c 	ldr	r0, [sp, #44]	; 0x2c
    3b2c:	e59d101c 	ldr	r1, [sp, #28]
    3b30:	e28d20a4 	add	r2, sp, #164	; 0xa4
    3b34:	eb002a6c 	bl	e4ec <__sprint_r>
    3b38:	e3500000 	cmp	r0, #0
    3b3c:	e28db0b0 	add	r11, sp, #176	; 0xb0
    3b40:	1afff997 	bne	21a4 <_vfprintf_r+0x394>
    3b44:	e59d60ac 	ldr	r6, [sp, #172]	; 0xac
    3b48:	e28d5d05 	add	r5, sp, #320	; 0x140
    3b4c:	eafffc92 	b	2d9c <_vfprintf_r+0xf8c>
    3b50:	e2844001 	add	r4, r4, #1
    3b54:	e0866008 	add	r6, r6, r8
    3b58:	e3540007 	cmp	r4, #7
    3b5c:	e8850180 	stm	r5, {r7, r8}
    3b60:	e58d60ac 	str	r6, [sp, #172]	; 0xac
    3b64:	e58d40a8 	str	r4, [sp, #168]	; 0xa8
    3b68:	d2855008 	addle	r5, r5, #8
    3b6c:	da000008 	ble	3b94 <_vfprintf_r+0x1d84>
    3b70:	e59d002c 	ldr	r0, [sp, #44]	; 0x2c
    3b74:	e59d101c 	ldr	r1, [sp, #28]
    3b78:	e28d20a4 	add	r2, sp, #164	; 0xa4
    3b7c:	eb002a5a 	bl	e4ec <__sprint_r>
    3b80:	e3500000 	cmp	r0, #0
    3b84:	1afff986 	bne	21a4 <_vfprintf_r+0x394>
    3b88:	e28d40a8 	add	r4, sp, #168	; 0xa8
    3b8c:	e8940050 	ldm	r4, {r4, r6}
    3b90:	e28d5d05 	add	r5, sp, #320	; 0x140
    3b94:	e2844001 	add	r4, r4, #1
    3b98:	e59d7044 	ldr	r7, [sp, #68]	; 0x44
    3b9c:	eafffc07 	b	2bc0 <_vfprintf_r+0xdb0>
    3ba0:	eb0019bc 	bl	a298 <strlen>
    3ba4:	e1c0cfc0 	bic	r12, r0, r0, asr #31
    3ba8:	e58d0038 	str	r0, [sp, #56]	; 0x38
    3bac:	e58d6040 	str	r6, [sp, #64]	; 0x40
    3bb0:	e58dc020 	str	r12, [sp, #32]
    3bb4:	e5dd3083 	ldrb	r3, [sp, #131]	; 0x83
    3bb8:	e58d703c 	str	r7, [sp, #60]	; 0x3c
    3bbc:	e58d6060 	str	r6, [sp, #96]	; 0x60
    3bc0:	eafffa16 	b	2420 <_vfprintf_r+0x610>
    3bc4:	e59d002c 	ldr	r0, [sp, #44]	; 0x2c
    3bc8:	e59d101c 	ldr	r1, [sp, #28]
    3bcc:	e28d20a4 	add	r2, sp, #164	; 0xa4
    3bd0:	eb002a45 	bl	e4ec <__sprint_r>
    3bd4:	e3500000 	cmp	r0, #0
    3bd8:	e28d60b0 	add	r6, sp, #176	; 0xb0
    3bdc:	1afff970 	bne	21a4 <_vfprintf_r+0x394>
    3be0:	e59d60ac 	ldr	r6, [sp, #172]	; 0xac
    3be4:	e28d5d05 	add	r5, sp, #320	; 0x140
    3be8:	eafffd3f 	b	30ec <_vfprintf_r+0x12dc>
    3bec:	e59d002c 	ldr	r0, [sp, #44]	; 0x2c
    3bf0:	e59d101c 	ldr	r1, [sp, #28]
    3bf4:	e28d20a4 	add	r2, sp, #164	; 0xa4
    3bf8:	eb002a3b 	bl	e4ec <__sprint_r>
    3bfc:	e3500000 	cmp	r0, #0
    3c00:	e28d60b0 	add	r6, sp, #176	; 0xb0
    3c04:	1afff966 	bne	21a4 <_vfprintf_r+0x394>
    3c08:	e59d3088 	ldr	r3, [sp, #136]	; 0x88
    3c0c:	e59db044 	ldr	r11, [sp, #68]	; 0x44
    3c10:	e59d60ac 	ldr	r6, [sp, #172]	; 0xac
    3c14:	e063300b 	rsb	r3, r3, r11
    3c18:	e28d5d05 	add	r5, sp, #320	; 0x140
    3c1c:	eafffde9 	b	33c8 <_vfprintf_r+0x15b8>
    3c20:	e3540006 	cmp	r4, #6
    3c24:	23a04006 	movcs	r4, #6
    3c28:	e1c4cfc4 	bic	r12, r4, r4, asr #31
    3c2c:	e58d4038 	str	r4, [sp, #56]	; 0x38
    3c30:	e51f4a90 	ldr	r4, [pc, #-2704]	; 31a8 <_vfprintf_r+0x1398>
    3c34:	e58dc020 	str	r12, [sp, #32]
    3c38:	e58d703c 	str	r7, [sp, #60]	; 0x3c
    3c3c:	e58d404c 	str	r4, [sp, #76]	; 0x4c
    3c40:	eafffb0a 	b	2870 <_vfprintf_r+0xa60>
    3c44:	e59d6040 	ldr	r6, [sp, #64]	; 0x40
    3c48:	e5dd3083 	ldrb	r3, [sp, #131]	; 0x83
    3c4c:	e58d6018 	str	r6, [sp, #24]
    3c50:	e58db040 	str	r11, [sp, #64]	; 0x40
    3c54:	eafff9f1 	b	2420 <_vfprintf_r+0x610>
    3c58:	e3a02003 	mov	r2, #3
    3c5c:	e28d3090 	add	r3, sp, #144	; 0x90
    3c60:	e58da020 	str	r10, [sp, #32]
    3c64:	e28d0088 	add	r0, sp, #136	; 0x88
    3c68:	e28d108c 	add	r1, sp, #140	; 0x8c
    3c6c:	e58d7024 	str	r7, [sp, #36]	; 0x24
    3c70:	e88d0014 	stm	sp, {r2, r4}
    3c74:	e58d0008 	str	r0, [sp, #8]
    3c78:	e58d3010 	str	r3, [sp, #16]
    3c7c:	e58d100c 	str	r1, [sp, #12]
    3c80:	e59d002c 	ldr	r0, [sp, #44]	; 0x2c
    3c84:	e28d3020 	add	r3, sp, #32
    3c88:	e893000c 	ldm	r3, {r2, r3}
    3c8c:	eb0007c3 	bl	5ba0 <_dtoa_r>
    3c90:	e3590047 	cmp	r9, #71	; 0x47
    3c94:	e58d004c 	str	r0, [sp, #76]	; 0x4c
    3c98:	1a000002 	bne	3ca8 <_vfprintf_r+0x1e98>
    3c9c:	e59dc018 	ldr	r12, [sp, #24]
    3ca0:	e31c0001 	tst	r12, #1
    3ca4:	0a000009 	beq	3cd0 <_vfprintf_r+0x1ec0>
    3ca8:	e59dc04c 	ldr	r12, [sp, #76]	; 0x4c
    3cac:	e3560000 	cmp	r6, #0
    3cb0:	e08c6004 	add	r6, r12, r4
    3cb4:	0afffe8f 	beq	36f8 <_vfprintf_r+0x18e8>
    3cb8:	e5dc3000 	ldrb	r3, [r12]
    3cbc:	e3530030 	cmp	r3, #48	; 0x30
    3cc0:	0a000075 	beq	3e9c <_vfprintf_r+0x208c>
    3cc4:	e59d3088 	ldr	r3, [sp, #136]	; 0x88
    3cc8:	e0866003 	add	r6, r6, r3
    3ccc:	eafffe89 	b	36f8 <_vfprintf_r+0x18e8>
    3cd0:	e59d3090 	ldr	r3, [sp, #144]	; 0x90
    3cd4:	e0603003 	rsb	r3, r0, r3
    3cd8:	e58d3044 	str	r3, [sp, #68]	; 0x44
    3cdc:	e59d0088 	ldr	r0, [sp, #136]	; 0x88
    3ce0:	e3700003 	cmn	r0, #3
    3ce4:	e1a03000 	mov	r3, r0
    3ce8:	ba000001 	blt	3cf4 <_vfprintf_r+0x1ee4>
    3cec:	e1540000 	cmp	r4, r0
    3cf0:	aafffe9a 	bge	3760 <_vfprintf_r+0x1950>
    3cf4:	e2488002 	sub	r8, r8, #2
    3cf8:	e2400001 	sub	r0, r0, #1
    3cfc:	e3500000 	cmp	r0, #0
    3d00:	e58d0088 	str	r0, [sp, #136]	; 0x88
    3d04:	b2600000 	rsblt	r0, r0, #0
    3d08:	b3a0302d 	movlt	r3, #45	; 0x2d
    3d0c:	a3a0302b 	movge	r3, #43	; 0x2b
    3d10:	e3500009 	cmp	r0, #9
    3d14:	e5cd8094 	strb	r8, [sp, #148]	; 0x94
    3d18:	e5cd3095 	strb	r3, [sp, #149]	; 0x95
    3d1c:	ca000040 	bgt	3e24 <_vfprintf_r+0x2014>
    3d20:	e2800030 	add	r0, r0, #48	; 0x30
    3d24:	e3a02030 	mov	r2, #48	; 0x30
    3d28:	e28d30a0 	add	r3, sp, #160	; 0xa0
    3d2c:	e5cd0097 	strb	r0, [sp, #151]	; 0x97
    3d30:	e5cd2096 	strb	r2, [sp, #150]	; 0x96
    3d34:	e2432008 	sub	r2, r3, #8
    3d38:	e59d6044 	ldr	r6, [sp, #68]	; 0x44
    3d3c:	e243300c 	sub	r3, r3, #12
    3d40:	e0633002 	rsb	r3, r3, r2
    3d44:	e0867003 	add	r7, r6, r3
    3d48:	e3560001 	cmp	r6, #1
    3d4c:	e58d3070 	str	r3, [sp, #112]	; 0x70
    3d50:	e58d7038 	str	r7, [sp, #56]	; 0x38
    3d54:	da000072 	ble	3f24 <_vfprintf_r+0x2114>
    3d58:	e59d6038 	ldr	r6, [sp, #56]	; 0x38
    3d5c:	e2866001 	add	r6, r6, #1
    3d60:	e1c67fc6 	bic	r7, r6, r6, asr #31
    3d64:	e3a0c000 	mov	r12, #0
    3d68:	e58d6038 	str	r6, [sp, #56]	; 0x38
    3d6c:	e58d7020 	str	r7, [sp, #32]
    3d70:	e58dc060 	str	r12, [sp, #96]	; 0x60
    3d74:	eafffe87 	b	3798 <_vfprintf_r+0x1988>
    3d78:	e1c46fc4 	bic	r6, r4, r4, asr #31
    3d7c:	e58d0040 	str	r0, [sp, #64]	; 0x40
    3d80:	e58d6020 	str	r6, [sp, #32]
    3d84:	e5dd3083 	ldrb	r3, [sp, #131]	; 0x83
    3d88:	e58d703c 	str	r7, [sp, #60]	; 0x3c
    3d8c:	e58d4038 	str	r4, [sp, #56]	; 0x38
    3d90:	e58d0060 	str	r0, [sp, #96]	; 0x60
    3d94:	eafff9a1 	b	2420 <_vfprintf_r+0x610>
    3d98:	e59d002c 	ldr	r0, [sp, #44]	; 0x2c
    3d9c:	e59d101c 	ldr	r1, [sp, #28]
    3da0:	e28d20a4 	add	r2, sp, #164	; 0xa4
    3da4:	eb0029d0 	bl	e4ec <__sprint_r>
    3da8:	e3500000 	cmp	r0, #0
    3dac:	e28db0b0 	add	r11, sp, #176	; 0xb0
    3db0:	1afff8fb 	bne	21a4 <_vfprintf_r+0x394>
    3db4:	e28d40a8 	add	r4, sp, #168	; 0xa8
    3db8:	e59d8088 	ldr	r8, [sp, #136]	; 0x88
    3dbc:	e8940050 	ldm	r4, {r4, r6}
    3dc0:	e28d5d05 	add	r5, sp, #320	; 0x140
    3dc4:	eafffee4 	b	395c <_vfprintf_r+0x1b4c>
    3dc8:	e3a02002 	mov	r2, #2
    3dcc:	eaffffa2 	b	3c5c <_vfprintf_r+0x1e4c>
    3dd0:	e3530000 	cmp	r3, #0
    3dd4:	e59d4044 	ldr	r4, [sp, #68]	; 0x44
    3dd8:	d2632002 	rsble	r2, r3, #2
    3ddc:	c3a02001 	movgt	r2, #1
    3de0:	e0822004 	add	r2, r2, r4
    3de4:	e1c26fc2 	bic	r6, r2, r2, asr #31
    3de8:	e58d2038 	str	r2, [sp, #56]	; 0x38
    3dec:	e58d6020 	str	r6, [sp, #32]
    3df0:	e3a08067 	mov	r8, #103	; 0x67
    3df4:	eafffe66 	b	3794 <_vfprintf_r+0x1984>
    3df8:	e3530000 	cmp	r3, #0
    3dfc:	da000036 	ble	3edc <_vfprintf_r+0x20cc>
    3e00:	e3540000 	cmp	r4, #0
    3e04:	1a00002e 	bne	3ec4 <_vfprintf_r+0x20b4>
    3e08:	e59d6018 	ldr	r6, [sp, #24]
    3e0c:	e3160001 	tst	r6, #1
    3e10:	1a00002b 	bne	3ec4 <_vfprintf_r+0x20b4>
    3e14:	e1c37fc3 	bic	r7, r3, r3, asr #31
    3e18:	e58d7020 	str	r7, [sp, #32]
    3e1c:	e58d3038 	str	r3, [sp, #56]	; 0x38
    3e20:	eafffe5b 	b	3794 <_vfprintf_r+0x1984>
    3e24:	e28d30a0 	add	r3, sp, #160	; 0xa0
    3e28:	e2832002 	add	r2, r3, #2
    3e2c:	e51f1c88 	ldr	r1, [pc, #-3208]	; 31ac <_vfprintf_r+0x139c>
    3e30:	e0cc4091 	smull	r4, r12, r1, r0
    3e34:	e1a01fc0 	asr	r1, r0, #31
    3e38:	e061114c 	rsb	r1, r1, r12, asr #2
    3e3c:	e081c101 	add	r12, r1, r1, lsl #2
    3e40:	e040c08c 	sub	r12, r0, r12, lsl #1
    3e44:	e1a00001 	mov	r0, r1
    3e48:	e3500009 	cmp	r0, #9
    3e4c:	e1a01002 	mov	r1, r2
    3e50:	e28c2030 	add	r2, r12, #48	; 0x30
    3e54:	e5c12000 	strb	r2, [r1]
    3e58:	e2412001 	sub	r2, r1, #1
    3e5c:	cafffff2 	bgt	3e2c <_vfprintf_r+0x201c>
    3e60:	e2834003 	add	r4, r3, #3
    3e64:	e2800030 	add	r0, r0, #48	; 0x30
    3e68:	e1540002 	cmp	r4, r2
    3e6c:	e5410001 	strb	r0, [r1, #-1]
    3e70:	9a000037 	bls	3f54 <_vfprintf_r+0x2144>
    3e74:	e243c00b 	sub	r12, r3, #11
    3e78:	e1a02001 	mov	r2, r1
    3e7c:	ea000000 	b	3e84 <_vfprintf_r+0x2074>
    3e80:	e4d20001 	ldrb	r0, [r2], #1
    3e84:	e1520004 	cmp	r2, r4
    3e88:	e5ec0001 	strb	r0, [r12, #1]!
    3e8c:	1afffffb 	bne	3e80 <_vfprintf_r+0x2070>
    3e90:	e0612083 	rsb	r2, r1, r3, lsl #1
    3e94:	e2422006 	sub	r2, r2, #6
    3e98:	eaffffa6 	b	3d38 <_vfprintf_r+0x1f28>
    3e9c:	e3a03000 	mov	r3, #0
    3ea0:	e1a0000a 	mov	r0, r10
    3ea4:	e1a01007 	mov	r1, r7
    3ea8:	e3a02000 	mov	r2, #0
    3eac:	eb003cc1 	bl	131b8 <__aeabi_dcmpeq>
    3eb0:	e3500000 	cmp	r0, #0
    3eb4:	02643001 	rsbeq	r3, r4, #1
    3eb8:	058d3088 	streq	r3, [sp, #136]	; 0x88
    3ebc:	0affff81 	beq	3cc8 <_vfprintf_r+0x1eb8>
    3ec0:	eaffff7f 	b	3cc4 <_vfprintf_r+0x1eb4>
    3ec4:	e2844001 	add	r4, r4, #1
    3ec8:	e0834004 	add	r4, r3, r4
    3ecc:	e1c4cfc4 	bic	r12, r4, r4, asr #31
    3ed0:	e58d4038 	str	r4, [sp, #56]	; 0x38
    3ed4:	e58dc020 	str	r12, [sp, #32]
    3ed8:	eafffe2d 	b	3794 <_vfprintf_r+0x1984>
    3edc:	e3540000 	cmp	r4, #0
    3ee0:	1a000016 	bne	3f40 <_vfprintf_r+0x2130>
    3ee4:	e59d6018 	ldr	r6, [sp, #24]
    3ee8:	e3160001 	tst	r6, #1
    3eec:	1a000013 	bne	3f40 <_vfprintf_r+0x2130>
    3ef0:	e3a07001 	mov	r7, #1
    3ef4:	e58d7020 	str	r7, [sp, #32]
    3ef8:	e58d7038 	str	r7, [sp, #56]	; 0x38
    3efc:	eafffe24 	b	3794 <_vfprintf_r+0x1984>
    3f00:	e59db03c 	ldr	r11, [sp, #60]	; 0x3c
    3f04:	e59b4000 	ldr	r4, [r11]
    3f08:	e28b0004 	add	r0, r11, #4
    3f0c:	e3540000 	cmp	r4, #0
    3f10:	e5d38001 	ldrb	r8, [r3, #1]
    3f14:	e58d003c 	str	r0, [sp, #60]	; 0x3c
    3f18:	e1a0300c 	mov	r3, r12
    3f1c:	b3e04000 	mvnlt	r4, #0
    3f20:	eafff81d 	b	1f9c <_vfprintf_r+0x18c>
    3f24:	e59dc018 	ldr	r12, [sp, #24]
    3f28:	e21c3001 	ands	r3, r12, #1
    3f2c:	1affff89 	bne	3d58 <_vfprintf_r+0x1f48>
    3f30:	e1c74fc7 	bic	r4, r7, r7, asr #31
    3f34:	e58d4020 	str	r4, [sp, #32]
    3f38:	e58d3060 	str	r3, [sp, #96]	; 0x60
    3f3c:	eafffe15 	b	3798 <_vfprintf_r+0x1988>
    3f40:	e2844002 	add	r4, r4, #2
    3f44:	e1c47fc4 	bic	r7, r4, r4, asr #31
    3f48:	e58d4038 	str	r4, [sp, #56]	; 0x38
    3f4c:	e58d7020 	str	r7, [sp, #32]
    3f50:	eafffe0f 	b	3794 <_vfprintf_r+0x1984>
    3f54:	e243200a 	sub	r2, r3, #10
    3f58:	eaffff76 	b	3d38 <_vfprintf_r+0x1f28>
    3f5c:	e59d0088 	ldr	r0, [sp, #136]	; 0x88
    3f60:	eaffff64 	b	3cf8 <_vfprintf_r+0x1ee8>

00003f64 <vfprintf>:
    3f64:	e52d4004 	push	{r4}		; (str r4, [sp, #-4]!)
    3f68:	e1a03002 	mov	r3, r2
    3f6c:	e59f2018 	ldr	r2, [pc, #24]	; 3f8c <vfprintf+0x28>
    3f70:	e1a04000 	mov	r4, r0
    3f74:	e1a0c001 	mov	r12, r1
    3f78:	e5920000 	ldr	r0, [r2]
    3f7c:	e1a01004 	mov	r1, r4
    3f80:	e1a0200c 	mov	r2, r12
    3f84:	e8bd0010 	ldmfd	sp!, {r4}
    3f88:	eafff7a0 	b	1e10 <_vfprintf_r>
    3f8c:	00014150 	.word	0x00014150

00003f90 <__svfscanf_r>:
    3f90:	e92d4ff0 	push	{r4, r5, r6, r7, r8, r9, r10, r11, lr}
    3f94:	e24ddfaf 	sub	sp, sp, #700	; 0x2bc
    3f98:	e1a04001 	mov	r4, r1
    3f9c:	e1a05002 	mov	r5, r2
    3fa0:	e58d3014 	str	r3, [sp, #20]
    3fa4:	e1a0b000 	mov	r11, r0
    3fa8:	eb000de4 	bl	7740 <__sfp_lock_acquire>
    3fac:	e1d430bc 	ldrh	r3, [r4, #12]
    3fb0:	e3130a02 	tst	r3, #8192	; 0x2000
    3fb4:	05942064 	ldreq	r2, [r4, #100]	; 0x64
    3fb8:	e3a0c000 	mov	r12, #0
    3fbc:	03c22a02 	biceq	r2, r2, #8192	; 0x2000
    3fc0:	03833a02 	orreq	r3, r3, #8192	; 0x2000
    3fc4:	05842064 	streq	r2, [r4, #100]	; 0x64
    3fc8:	01c430bc 	strheq	r3, [r4, #12]
    3fcc:	e1a02005 	mov	r2, r5
    3fd0:	e58dc01c 	str	r12, [sp, #28]
    3fd4:	e58dc024 	str	r12, [sp, #36]	; 0x24
    3fd8:	e58dc020 	str	r12, [sp, #32]
    3fdc:	e59f5fc0 	ldr	r5, [pc, #4032]	; 4fa4 <__svfscanf_r+0x1014>
    3fe0:	e1a0900c 	mov	r9, r12
    3fe4:	e1a08002 	mov	r8, r2
    3fe8:	e4d83001 	ldrb	r3, [r8], #1
    3fec:	e3530000 	cmp	r3, #0
    3ff0:	e58d3044 	str	r3, [sp, #68]	; 0x44
    3ff4:	0a0000c6 	beq	4314 <__svfscanf_r+0x384>
    3ff8:	e5951000 	ldr	r1, [r5]
    3ffc:	e0810003 	add	r0, r1, r3
    4000:	e5d07001 	ldrb	r7, [r0, #1]
    4004:	e2177008 	ands	r7, r7, #8
    4008:	0a000016 	beq	4068 <__svfscanf_r+0xd8>
    400c:	e5943004 	ldr	r3, [r4, #4]
    4010:	ea00000b 	b	4044 <__svfscanf_r+0xb4>
    4014:	e5942000 	ldr	r2, [r4]
    4018:	e5951000 	ldr	r1, [r5]
    401c:	e5d23000 	ldrb	r3, [r2]
    4020:	e0813003 	add	r3, r1, r3
    4024:	e5d33001 	ldrb	r3, [r3, #1]
    4028:	e3130008 	tst	r3, #8
    402c:	0a00000b 	beq	4060 <__svfscanf_r+0xd0>
    4030:	e5943004 	ldr	r3, [r4, #4]
    4034:	e2822001 	add	r2, r2, #1
    4038:	e2433001 	sub	r3, r3, #1
    403c:	e884000c 	stm	r4, {r2, r3}
    4040:	e2899001 	add	r9, r9, #1
    4044:	e3530000 	cmp	r3, #0
    4048:	cafffff1 	bgt	4014 <__svfscanf_r+0x84>
    404c:	e1a0000b 	mov	r0, r11
    4050:	e1a01004 	mov	r1, r4
    4054:	eb0016cb 	bl	9b88 <__srefill_r>
    4058:	e3500000 	cmp	r0, #0
    405c:	0affffec 	beq	4014 <__svfscanf_r+0x84>
    4060:	e1a02008 	mov	r2, r8
    4064:	eaffffde 	b	3fe4 <__svfscanf_r+0x54>
    4068:	e3530025 	cmp	r3, #37	; 0x25
    406c:	0a00000f 	beq	40b0 <__svfscanf_r+0x120>
    4070:	e5943004 	ldr	r3, [r4, #4]
    4074:	e3530000 	cmp	r3, #0
    4078:	da00008b 	ble	42ac <__svfscanf_r+0x31c>
    407c:	e5943000 	ldr	r3, [r4]
    4080:	e5582001 	ldrb	r2, [r8, #-1]
    4084:	e5d31000 	ldrb	r1, [r3]
    4088:	e1510002 	cmp	r1, r2
    408c:	1a0000a0 	bne	4314 <__svfscanf_r+0x384>
    4090:	e5942004 	ldr	r2, [r4, #4]
    4094:	e2833001 	add	r3, r3, #1
    4098:	e2422001 	sub	r2, r2, #1
    409c:	e5842004 	str	r2, [r4, #4]
    40a0:	e5843000 	str	r3, [r4]
    40a4:	e2899001 	add	r9, r9, #1
    40a8:	e1a02008 	mov	r2, r8
    40ac:	eaffffcc 	b	3fe4 <__svfscanf_r+0x54>
    40b0:	e5d23001 	ldrb	r3, [r2, #1]
    40b4:	e1a06007 	mov	r6, r7
    40b8:	e2882001 	add	r2, r8, #1
    40bc:	e3530078 	cmp	r3, #120	; 0x78
    40c0:	979ff103 	ldrls	pc, [pc, r3, lsl #2]
    40c4:	ea0002df 	b	4c48 <__svfscanf_r+0xcb8>
    40c8:	00004c98 	.word	0x00004c98
    40cc:	00004c48 	.word	0x00004c48
    40d0:	00004c48 	.word	0x00004c48
    40d4:	00004c48 	.word	0x00004c48
    40d8:	00004c48 	.word	0x00004c48
    40dc:	00004c48 	.word	0x00004c48
    40e0:	00004c48 	.word	0x00004c48
    40e4:	00004c48 	.word	0x00004c48
    40e8:	00004c48 	.word	0x00004c48
    40ec:	00004c48 	.word	0x00004c48
    40f0:	00004c48 	.word	0x00004c48
    40f4:	00004c48 	.word	0x00004c48
    40f8:	00004c48 	.word	0x00004c48
    40fc:	00004c48 	.word	0x00004c48
    4100:	00004c48 	.word	0x00004c48
    4104:	00004c48 	.word	0x00004c48
    4108:	00004c48 	.word	0x00004c48
    410c:	00004c48 	.word	0x00004c48
    4110:	00004c48 	.word	0x00004c48
    4114:	00004c48 	.word	0x00004c48
    4118:	00004c48 	.word	0x00004c48
    411c:	00004c48 	.word	0x00004c48
    4120:	00004c48 	.word	0x00004c48
    4124:	00004c48 	.word	0x00004c48
    4128:	00004c48 	.word	0x00004c48
    412c:	00004c48 	.word	0x00004c48
    4130:	00004c48 	.word	0x00004c48
    4134:	00004c48 	.word	0x00004c48
    4138:	00004c48 	.word	0x00004c48
    413c:	00004c48 	.word	0x00004c48
    4140:	00004c48 	.word	0x00004c48
    4144:	00004c48 	.word	0x00004c48
    4148:	00004c48 	.word	0x00004c48
    414c:	00004c48 	.word	0x00004c48
    4150:	00004c48 	.word	0x00004c48
    4154:	00004c48 	.word	0x00004c48
    4158:	00004c48 	.word	0x00004c48
    415c:	00004ca8 	.word	0x00004ca8
    4160:	00004c48 	.word	0x00004c48
    4164:	00004c48 	.word	0x00004c48
    4168:	00004c48 	.word	0x00004c48
    416c:	00004c48 	.word	0x00004c48
    4170:	00004cb4 	.word	0x00004cb4
    4174:	00004c48 	.word	0x00004c48
    4178:	00004c48 	.word	0x00004c48
    417c:	00004c48 	.word	0x00004c48
    4180:	00004c48 	.word	0x00004c48
    4184:	00004c48 	.word	0x00004c48
    4188:	00004cc4 	.word	0x00004cc4
    418c:	00004cc4 	.word	0x00004cc4
    4190:	00004cc4 	.word	0x00004cc4
    4194:	00004cc4 	.word	0x00004cc4
    4198:	00004cc4 	.word	0x00004cc4
    419c:	00004cc4 	.word	0x00004cc4
    41a0:	00004cc4 	.word	0x00004cc4
    41a4:	00004cc4 	.word	0x00004cc4
    41a8:	00004cc4 	.word	0x00004cc4
    41ac:	00004cc4 	.word	0x00004cc4
    41b0:	00004c48 	.word	0x00004c48
    41b4:	00004c48 	.word	0x00004c48
    41b8:	00004c48 	.word	0x00004c48
    41bc:	00004c48 	.word	0x00004c48
    41c0:	00004c48 	.word	0x00004c48
    41c4:	00004c48 	.word	0x00004c48
    41c8:	00004c48 	.word	0x00004c48
    41cc:	00004c48 	.word	0x00004c48
    41d0:	00004c48 	.word	0x00004c48
    41d4:	00004c48 	.word	0x00004c48
    41d8:	00004cdc 	.word	0x00004cdc
    41dc:	00004ce8 	.word	0x00004ce8
    41e0:	00004c48 	.word	0x00004c48
    41e4:	00004ce8 	.word	0x00004ce8
    41e8:	00004c48 	.word	0x00004c48
    41ec:	00004c48 	.word	0x00004c48
    41f0:	00004c48 	.word	0x00004c48
    41f4:	00004c48 	.word	0x00004c48
    41f8:	00004cf4 	.word	0x00004cf4
    41fc:	00004c48 	.word	0x00004c48
    4200:	00004c48 	.word	0x00004c48
    4204:	00004d04 	.word	0x00004d04
    4208:	00004c48 	.word	0x00004c48
    420c:	00004c48 	.word	0x00004c48
    4210:	00004c48 	.word	0x00004c48
    4214:	00004c48 	.word	0x00004c48
    4218:	00004c48 	.word	0x00004c48
    421c:	00004c48 	.word	0x00004c48
    4220:	00004c48 	.word	0x00004c48
    4224:	00004c48 	.word	0x00004c48
    4228:	00004d24 	.word	0x00004d24
    422c:	00004c48 	.word	0x00004c48
    4230:	00004c48 	.word	0x00004c48
    4234:	00004d44 	.word	0x00004d44
    4238:	00004c48 	.word	0x00004c48
    423c:	00004c48 	.word	0x00004c48
    4240:	00004c48 	.word	0x00004c48
    4244:	00004c48 	.word	0x00004c48
    4248:	00004c48 	.word	0x00004c48
    424c:	00004c48 	.word	0x00004c48
    4250:	00004c48 	.word	0x00004c48
    4254:	00004d64 	.word	0x00004d64
    4258:	00004d74 	.word	0x00004d74
    425c:	00004ce8 	.word	0x00004ce8
    4260:	00004ce8 	.word	0x00004ce8
    4264:	00004ce8 	.word	0x00004ce8
    4268:	00004d7c 	.word	0x00004d7c
    426c:	00004d8c 	.word	0x00004d8c
    4270:	00004c48 	.word	0x00004c48
    4274:	00004c48 	.word	0x00004c48
    4278:	00004da8 	.word	0x00004da8
    427c:	00004c48 	.word	0x00004c48
    4280:	00004dc8 	.word	0x00004dc8
    4284:	00004df8 	.word	0x00004df8
    4288:	00004e00 	.word	0x00004e00
    428c:	00004c48 	.word	0x00004c48
    4290:	00004c48 	.word	0x00004c48
    4294:	00004e0c 	.word	0x00004e0c
    4298:	00004c48 	.word	0x00004c48
    429c:	00004328 	.word	0x00004328
    42a0:	00004c48 	.word	0x00004c48
    42a4:	00004c48 	.word	0x00004c48
    42a8:	00004d24 	.word	0x00004d24
    42ac:	e1a0000b 	mov	r0, r11
    42b0:	e1a01004 	mov	r1, r4
    42b4:	eb001633 	bl	9b88 <__srefill_r>
    42b8:	e3500000 	cmp	r0, #0
    42bc:	0affff6e 	beq	407c <__svfscanf_r+0xec>
    42c0:	eb000d1f 	bl	7744 <__sfp_lock_release>
    42c4:	e59dc020 	ldr	r12, [sp, #32]
    42c8:	e35c0000 	cmp	r12, #0
    42cc:	0a000002 	beq	42dc <__svfscanf_r+0x34c>
    42d0:	e1d430bc 	ldrh	r3, [r4, #12]
    42d4:	e3130040 	tst	r3, #64	; 0x40
    42d8:	0a00000e 	beq	4318 <__svfscanf_r+0x388>
    42dc:	e3e0c000 	mvn	r12, #0
    42e0:	e58dc020 	str	r12, [sp, #32]
    42e4:	ea00000b 	b	4318 <__svfscanf_r+0x388>
    42e8:	e59dc02c 	ldr	r12, [sp, #44]	; 0x2c
    42ec:	e15a000c 	cmp	r10, r12
    42f0:	9a000007 	bls	4314 <__svfscanf_r+0x384>
    42f4:	e1a0500a 	mov	r5, r10
    42f8:	e5751001 	ldrb	r1, [r5, #-1]!
    42fc:	e1a0000b 	mov	r0, r11
    4300:	e1a02004 	mov	r2, r4
    4304:	eb002813 	bl	e358 <_ungetc_r>
    4308:	e59dc02c 	ldr	r12, [sp, #44]	; 0x2c
    430c:	e155000c 	cmp	r5, r12
    4310:	1afffff8 	bne	42f8 <__svfscanf_r+0x368>
    4314:	eb000d0a 	bl	7744 <__sfp_lock_release>
    4318:	e59d0020 	ldr	r0, [sp, #32]
    431c:	e28ddfaf 	add	sp, sp, #700	; 0x2bc
    4320:	e8bd4ff0 	pop	{r4, r5, r6, r7, r8, r9, r10, r11, lr}
    4324:	e12fff1e 	bx	lr
    4328:	e59fcc88 	ldr	r12, [pc, #3208]	; 4fb8 <__svfscanf_r+0x1028>
    432c:	e58dc01c 	str	r12, [sp, #28]
    4330:	e3a0c00a 	mov	r12, #10
    4334:	e58d2018 	str	r2, [sp, #24]
    4338:	e58dc024 	str	r12, [sp, #36]	; 0x24
    433c:	e3a08003 	mov	r8, #3
    4340:	e5943004 	ldr	r3, [r4, #4]
    4344:	e3530000 	cmp	r3, #0
    4348:	da00024c 	ble	4c80 <__svfscanf_r+0xcf0>
    434c:	e3170040 	tst	r7, #64	; 0x40
    4350:	0a00000c 	beq	4388 <__svfscanf_r+0x3f8>
    4354:	e2488001 	sub	r8, r8, #1
    4358:	e3580003 	cmp	r8, #3
    435c:	979ff108 	ldrls	pc, [pc, r8, lsl #2]
    4360:	ea0000a8 	b	4608 <__svfscanf_r+0x678>
    4364:	00004808 	.word	0x00004808
    4368:	0000455c 	.word	0x0000455c
    436c:	000043cc 	.word	0x000043cc
    4370:	0000466c 	.word	0x0000466c
    4374:	e1a0000b 	mov	r0, r11
    4378:	e1a01004 	mov	r1, r4
    437c:	eb001601 	bl	9b88 <__srefill_r>
    4380:	e3500000 	cmp	r0, #0
    4384:	1affffcd 	bne	42c0 <__svfscanf_r+0x330>
    4388:	e5951000 	ldr	r1, [r5]
    438c:	e5943000 	ldr	r3, [r4]
    4390:	ea000001 	b	439c <__svfscanf_r+0x40c>
    4394:	e2833001 	add	r3, r3, #1
    4398:	e5843000 	str	r3, [r4]
    439c:	e5d32000 	ldrb	r2, [r3]
    43a0:	e0812002 	add	r2, r1, r2
    43a4:	e5d22001 	ldrb	r2, [r2, #1]
    43a8:	e3120008 	tst	r2, #8
    43ac:	0affffe8 	beq	4354 <__svfscanf_r+0x3c4>
    43b0:	e5942004 	ldr	r2, [r4, #4]
    43b4:	e2422001 	sub	r2, r2, #1
    43b8:	e3520000 	cmp	r2, #0
    43bc:	e5842004 	str	r2, [r4, #4]
    43c0:	e2899001 	add	r9, r9, #1
    43c4:	cafffff2 	bgt	4394 <__svfscanf_r+0x404>
    43c8:	eaffffe9 	b	4374 <__svfscanf_r+0x3e4>
    43cc:	e2463001 	sub	r3, r6, #1
    43d0:	e3530f57 	cmp	r3, #348	; 0x15c
    43d4:	82463f57 	subhi	r3, r6, #348	; 0x15c
    43d8:	e28dcf56 	add	r12, sp, #344	; 0x158
    43dc:	82433001 	subhi	r3, r3, #1
    43e0:	93a03000 	movls	r3, #0
    43e4:	e3a0a000 	mov	r10, #0
    43e8:	e58dc02c 	str	r12, [sp, #44]	; 0x2c
    43ec:	e1a0800c 	mov	r8, r12
    43f0:	859f6bb0 	ldrhi	r6, [pc, #2992]	; 4fa8 <__svfscanf_r+0x1018>
    43f4:	e1a0c009 	mov	r12, r9
    43f8:	e1a09003 	mov	r9, r3
    43fc:	e1a0300b 	mov	r3, r11
    4400:	e1a0b00a 	mov	r11, r10
    4404:	e59da024 	ldr	r10, [sp, #36]	; 0x24
    4408:	e3877d36 	orr	r7, r7, #3456	; 0xd80
    440c:	e5940000 	ldr	r0, [r4]
    4410:	e5d01000 	ldrb	r1, [r0]
    4414:	e241202b 	sub	r2, r1, #43	; 0x2b
    4418:	e352004d 	cmp	r2, #77	; 0x4d
    441c:	979ff102 	ldrls	pc, [pc, r2, lsl #2]
    4420:	ea000125 	b	48bc <__svfscanf_r+0x92c>
    4424:	0000494c 	.word	0x0000494c
    4428:	000048bc 	.word	0x000048bc
    442c:	0000494c 	.word	0x0000494c
    4430:	000048bc 	.word	0x000048bc
    4434:	000048bc 	.word	0x000048bc
    4438:	00004970 	.word	0x00004970
    443c:	0000495c 	.word	0x0000495c
    4440:	0000495c 	.word	0x0000495c
    4444:	0000495c 	.word	0x0000495c
    4448:	0000495c 	.word	0x0000495c
    444c:	0000495c 	.word	0x0000495c
    4450:	0000495c 	.word	0x0000495c
    4454:	0000495c 	.word	0x0000495c
    4458:	00004934 	.word	0x00004934
    445c:	00004934 	.word	0x00004934
    4460:	000048bc 	.word	0x000048bc
    4464:	000048bc 	.word	0x000048bc
    4468:	000048bc 	.word	0x000048bc
    446c:	000048bc 	.word	0x000048bc
    4470:	000048bc 	.word	0x000048bc
    4474:	000048bc 	.word	0x000048bc
    4478:	000048bc 	.word	0x000048bc
    447c:	00004924 	.word	0x00004924
    4480:	00004924 	.word	0x00004924
    4484:	00004924 	.word	0x00004924
    4488:	00004924 	.word	0x00004924
    448c:	00004924 	.word	0x00004924
    4490:	00004924 	.word	0x00004924
    4494:	000048bc 	.word	0x000048bc
    4498:	000048bc 	.word	0x000048bc
    449c:	000048bc 	.word	0x000048bc
    44a0:	000048bc 	.word	0x000048bc
    44a4:	000048bc 	.word	0x000048bc
    44a8:	000048bc 	.word	0x000048bc
    44ac:	000048bc 	.word	0x000048bc
    44b0:	000048bc 	.word	0x000048bc
    44b4:	000048bc 	.word	0x000048bc
    44b8:	000048bc 	.word	0x000048bc
    44bc:	000048bc 	.word	0x000048bc
    44c0:	000048bc 	.word	0x000048bc
    44c4:	000048bc 	.word	0x000048bc
    44c8:	000048bc 	.word	0x000048bc
    44cc:	000048bc 	.word	0x000048bc
    44d0:	000048bc 	.word	0x000048bc
    44d4:	000048bc 	.word	0x000048bc
    44d8:	0000487c 	.word	0x0000487c
    44dc:	000048bc 	.word	0x000048bc
    44e0:	000048bc 	.word	0x000048bc
    44e4:	000048bc 	.word	0x000048bc
    44e8:	000048bc 	.word	0x000048bc
    44ec:	000048bc 	.word	0x000048bc
    44f0:	000048bc 	.word	0x000048bc
    44f4:	000048bc 	.word	0x000048bc
    44f8:	000048bc 	.word	0x000048bc
    44fc:	00004924 	.word	0x00004924
    4500:	00004924 	.word	0x00004924
    4504:	00004924 	.word	0x00004924
    4508:	00004924 	.word	0x00004924
    450c:	00004924 	.word	0x00004924
    4510:	00004924 	.word	0x00004924
    4514:	000048bc 	.word	0x000048bc
    4518:	000048bc 	.word	0x000048bc
    451c:	000048bc 	.word	0x000048bc
    4520:	000048bc 	.word	0x000048bc
    4524:	000048bc 	.word	0x000048bc
    4528:	000048bc 	.word	0x000048bc
    452c:	000048bc 	.word	0x000048bc
    4530:	000048bc 	.word	0x000048bc
    4534:	000048bc 	.word	0x000048bc
    4538:	000048bc 	.word	0x000048bc
    453c:	000048bc 	.word	0x000048bc
    4540:	000048bc 	.word	0x000048bc
    4544:	000048bc 	.word	0x000048bc
    4548:	000048bc 	.word	0x000048bc
    454c:	000048bc 	.word	0x000048bc
    4550:	000048bc 	.word	0x000048bc
    4554:	000048bc 	.word	0x000048bc
    4558:	0000487c 	.word	0x0000487c
    455c:	e3560000 	cmp	r6, #0
    4560:	03e06000 	mvneq	r6, #0
    4564:	e2172001 	ands	r2, r7, #1
    4568:	1a00022a 	bne	4e18 <__svfscanf_r+0xe88>
    456c:	e3170010 	tst	r7, #16
    4570:	1a000291 	bne	4fbc <__svfscanf_r+0x102c>
    4574:	e59dc014 	ldr	r12, [sp, #20]
    4578:	e59ca000 	ldr	r10, [r12]
    457c:	e28c3004 	add	r3, r12, #4
    4580:	e5942000 	ldr	r2, [r4]
    4584:	e28a7001 	add	r7, r10, #1
    4588:	e08a6006 	add	r6, r10, r6
    458c:	e1a08003 	mov	r8, r3
    4590:	ea000000 	b	4598 <__svfscanf_r+0x608>
    4594:	e2877001 	add	r7, r7, #1
    4598:	e5d23000 	ldrb	r3, [r2]
    459c:	e5951000 	ldr	r1, [r5]
    45a0:	e0811003 	add	r1, r1, r3
    45a4:	e5d11001 	ldrb	r1, [r1, #1]
    45a8:	e3110008 	tst	r1, #8
    45ac:	e2473001 	sub	r3, r7, #1
    45b0:	1a00029b 	bne	5024 <__svfscanf_r+0x1094>
    45b4:	e5943004 	ldr	r3, [r4, #4]
    45b8:	e2433001 	sub	r3, r3, #1
    45bc:	e5843004 	str	r3, [r4, #4]
    45c0:	e4d23001 	ldrb	r3, [r2], #1
    45c4:	e1570006 	cmp	r7, r6
    45c8:	e5473001 	strb	r3, [r7, #-1]
    45cc:	e1a03007 	mov	r3, r7
    45d0:	e5842000 	str	r2, [r4]
    45d4:	0a000292 	beq	5024 <__svfscanf_r+0x1094>
    45d8:	e5941004 	ldr	r1, [r4, #4]
    45dc:	e3510000 	cmp	r1, #0
    45e0:	caffffeb 	bgt	4594 <__svfscanf_r+0x604>
    45e4:	e1a0000b 	mov	r0, r11
    45e8:	e1a01004 	mov	r1, r4
    45ec:	e58d7008 	str	r7, [sp, #8]
    45f0:	eb001564 	bl	9b88 <__srefill_r>
    45f4:	e3500000 	cmp	r0, #0
    45f8:	e59d3008 	ldr	r3, [sp, #8]
    45fc:	1a000288 	bne	5024 <__svfscanf_r+0x1094>
    4600:	e5942000 	ldr	r2, [r4]
    4604:	eaffffe2 	b	4594 <__svfscanf_r+0x604>
    4608:	e3560000 	cmp	r6, #0
    460c:	03a06001 	moveq	r6, #1
    4610:	e2173001 	ands	r3, r7, #1
    4614:	1a000294 	bne	506c <__svfscanf_r+0x10dc>
    4618:	e3170010 	tst	r7, #16
    461c:	0a0002f0 	beq	51e4 <__svfscanf_r+0x1254>
    4620:	e1a07003 	mov	r7, r3
    4624:	e894000c 	ldm	r4, {r2, r3}
    4628:	e1530006 	cmp	r3, r6
    462c:	e1a0000b 	mov	r0, r11
    4630:	e1a01004 	mov	r1, r4
    4634:	aa000312 	bge	5284 <__svfscanf_r+0x12f4>
    4638:	e0822003 	add	r2, r2, r3
    463c:	e5842000 	str	r2, [r4]
    4640:	e0877003 	add	r7, r7, r3
    4644:	e0636006 	rsb	r6, r3, r6
    4648:	eb00154e 	bl	9b88 <__srefill_r>
    464c:	e3500000 	cmp	r0, #0
    4650:	0afffff3 	beq	4624 <__svfscanf_r+0x694>
    4654:	e3570000 	cmp	r7, #0
    4658:	0affff18 	beq	42c0 <__svfscanf_r+0x330>
    465c:	e59d8018 	ldr	r8, [sp, #24]
    4660:	e0899007 	add	r9, r9, r7
    4664:	e1a02008 	mov	r2, r8
    4668:	eafffe5d 	b	3fe4 <__svfscanf_r+0x54>
    466c:	e2463001 	sub	r3, r6, #1
    4670:	e28dcf56 	add	r12, sp, #344	; 0x158
    4674:	e3a08000 	mov	r8, #0
    4678:	e3530f57 	cmp	r3, #348	; 0x15c
    467c:	e58dc02c 	str	r12, [sp, #44]	; 0x2c
    4680:	82463f57 	subhi	r3, r6, #348	; 0x15c
    4684:	e58d8030 	str	r8, [sp, #48]	; 0x30
    4688:	859f6918 	ldrhi	r6, [pc, #2328]	; 4fa8 <__svfscanf_r+0x1018>
    468c:	e58d8038 	str	r8, [sp, #56]	; 0x38
    4690:	e58d8028 	str	r8, [sp, #40]	; 0x28
    4694:	e58d8034 	str	r8, [sp, #52]	; 0x34
    4698:	e59da02c 	ldr	r10, [sp, #44]	; 0x2c
    469c:	e1a0200b 	mov	r2, r11
    46a0:	82433001 	subhi	r3, r3, #1
    46a4:	93a03000 	movls	r3, #0
    46a8:	e3877d1e 	orr	r7, r7, #1920	; 0x780
    46ac:	e1a0c008 	mov	r12, r8
    46b0:	e1a0b008 	mov	r11, r8
    46b4:	e594e000 	ldr	lr, [r4]
    46b8:	e5de0000 	ldrb	r0, [lr]
    46bc:	e240102b 	sub	r1, r0, #43	; 0x2b
    46c0:	e351004e 	cmp	r1, #78	; 0x4e
    46c4:	979ff101 	ldrls	pc, [pc, r1, lsl #2]
    46c8:	ea0000c6 	b	49e8 <__svfscanf_r+0xa58>
    46cc:	00004bc8 	.word	0x00004bc8
    46d0:	000049e8 	.word	0x000049e8
    46d4:	00004bc8 	.word	0x00004bc8
    46d8:	00004bb4 	.word	0x00004bb4
    46dc:	000049e8 	.word	0x000049e8
    46e0:	00004b94 	.word	0x00004b94
    46e4:	000049a8 	.word	0x000049a8
    46e8:	000049a8 	.word	0x000049a8
    46ec:	000049a8 	.word	0x000049a8
    46f0:	000049a8 	.word	0x000049a8
    46f4:	000049a8 	.word	0x000049a8
    46f8:	000049a8 	.word	0x000049a8
    46fc:	000049a8 	.word	0x000049a8
    4700:	000049a8 	.word	0x000049a8
    4704:	000049a8 	.word	0x000049a8
    4708:	000049e8 	.word	0x000049e8
    470c:	000049e8 	.word	0x000049e8
    4710:	000049e8 	.word	0x000049e8
    4714:	000049e8 	.word	0x000049e8
    4718:	000049e8 	.word	0x000049e8
    471c:	000049e8 	.word	0x000049e8
    4720:	000049e8 	.word	0x000049e8
    4724:	00004b34 	.word	0x00004b34
    4728:	000049e8 	.word	0x000049e8
    472c:	000049e8 	.word	0x000049e8
    4730:	000049e8 	.word	0x000049e8
    4734:	00004b54 	.word	0x00004b54
    4738:	00004b44 	.word	0x00004b44
    473c:	000049e8 	.word	0x000049e8
    4740:	000049e8 	.word	0x000049e8
    4744:	00004c14 	.word	0x00004c14
    4748:	000049e8 	.word	0x000049e8
    474c:	000049e8 	.word	0x000049e8
    4750:	000049e8 	.word	0x000049e8
    4754:	000049e8 	.word	0x000049e8
    4758:	00004bd8 	.word	0x00004bd8
    475c:	000049e8 	.word	0x000049e8
    4760:	000049e8 	.word	0x000049e8
    4764:	000049e8 	.word	0x000049e8
    4768:	000049e8 	.word	0x000049e8
    476c:	000049e8 	.word	0x000049e8
    4770:	00004b24 	.word	0x00004b24
    4774:	000049e8 	.word	0x000049e8
    4778:	000049e8 	.word	0x000049e8
    477c:	000049e8 	.word	0x000049e8
    4780:	000049e8 	.word	0x000049e8
    4784:	00004b14 	.word	0x00004b14
    4788:	000049e8 	.word	0x000049e8
    478c:	000049e8 	.word	0x000049e8
    4790:	000049e8 	.word	0x000049e8
    4794:	000049e8 	.word	0x000049e8
    4798:	000049e8 	.word	0x000049e8
    479c:	000049e8 	.word	0x000049e8
    47a0:	000049e8 	.word	0x000049e8
    47a4:	00004b34 	.word	0x00004b34
    47a8:	000049e8 	.word	0x000049e8
    47ac:	000049e8 	.word	0x000049e8
    47b0:	000049e8 	.word	0x000049e8
    47b4:	00004b54 	.word	0x00004b54
    47b8:	00004b44 	.word	0x00004b44
    47bc:	000049e8 	.word	0x000049e8
    47c0:	000049e8 	.word	0x000049e8
    47c4:	00004c14 	.word	0x00004c14
    47c8:	000049e8 	.word	0x000049e8
    47cc:	000049e8 	.word	0x000049e8
    47d0:	000049e8 	.word	0x000049e8
    47d4:	000049e8 	.word	0x000049e8
    47d8:	00004bd8 	.word	0x00004bd8
    47dc:	000049e8 	.word	0x000049e8
    47e0:	000049e8 	.word	0x000049e8
    47e4:	000049e8 	.word	0x000049e8
    47e8:	000049e8 	.word	0x000049e8
    47ec:	000049e8 	.word	0x000049e8
    47f0:	00004b24 	.word	0x00004b24
    47f4:	000049e8 	.word	0x000049e8
    47f8:	000049e8 	.word	0x000049e8
    47fc:	000049e8 	.word	0x000049e8
    4800:	000049e8 	.word	0x000049e8
    4804:	00004b14 	.word	0x00004b14
    4808:	e3560000 	cmp	r6, #0
    480c:	03e06000 	mvneq	r6, #0
    4810:	e3170010 	tst	r7, #16
    4814:	0a0001b2 	beq	4ee4 <__svfscanf_r+0xf54>
    4818:	e5943000 	ldr	r3, [r4]
    481c:	e3a07000 	mov	r7, #0
    4820:	e5d32000 	ldrb	r2, [r3]
    4824:	e28d0fae 	add	r0, sp, #696	; 0x2b8
    4828:	e0802002 	add	r2, r0, r2
    482c:	e5522260 	ldrb	r2, [r2, #-608]	; 0xfffffda0
    4830:	e3520000 	cmp	r2, #0
    4834:	e2833001 	add	r3, r3, #1
    4838:	0a000266 	beq	51d8 <__svfscanf_r+0x1248>
    483c:	e5942004 	ldr	r2, [r4, #4]
    4840:	e2877001 	add	r7, r7, #1
    4844:	e2422001 	sub	r2, r2, #1
    4848:	e1560007 	cmp	r6, r7
    484c:	e5843000 	str	r3, [r4]
    4850:	e5842004 	str	r2, [r4, #4]
    4854:	0affff80 	beq	465c <__svfscanf_r+0x6cc>
    4858:	e3520000 	cmp	r2, #0
    485c:	caffffef 	bgt	4820 <__svfscanf_r+0x890>
    4860:	e1a0000b 	mov	r0, r11
    4864:	e1a01004 	mov	r1, r4
    4868:	eb0014c6 	bl	9b88 <__srefill_r>
    486c:	e3500000 	cmp	r0, #0
    4870:	1affff79 	bne	465c <__svfscanf_r+0x6cc>
    4874:	e5943000 	ldr	r3, [r4]
    4878:	eaffffe8 	b	4820 <__svfscanf_r+0x890>
    487c:	e2072c06 	and	r2, r7, #1536	; 0x600
    4880:	e3520c02 	cmp	r2, #512	; 0x200
    4884:	1a00000c 	bne	48bc <__svfscanf_r+0x92c>
    4888:	e3c77c02 	bic	r7, r7, #512	; 0x200
    488c:	e3877c05 	orr	r7, r7, #1280	; 0x500
    4890:	e3a0a010 	mov	r10, #16
    4894:	e4c81001 	strb	r1, [r8], #1
    4898:	e5942004 	ldr	r2, [r4, #4]
    489c:	e2422001 	sub	r2, r2, #1
    48a0:	e3520000 	cmp	r2, #0
    48a4:	e5842004 	str	r2, [r4, #4]
    48a8:	da000183 	ble	4ebc <__svfscanf_r+0xf2c>
    48ac:	e2800001 	add	r0, r0, #1
    48b0:	e5840000 	str	r0, [r4]
    48b4:	e2566001 	subs	r6, r6, #1
    48b8:	1afffed3 	bne	440c <__svfscanf_r+0x47c>
    48bc:	e3170c01 	tst	r7, #256	; 0x100
    48c0:	e58da024 	str	r10, [sp, #36]	; 0x24
    48c4:	e1a0900c 	mov	r9, r12
    48c8:	e1a0a00b 	mov	r10, r11
    48cc:	e1a0b003 	mov	r11, r3
    48d0:	0a00000a 	beq	4900 <__svfscanf_r+0x970>
    48d4:	e59dc02c 	ldr	r12, [sp, #44]	; 0x2c
    48d8:	e158000c 	cmp	r8, r12
    48dc:	9a000004 	bls	48f4 <__svfscanf_r+0x964>
    48e0:	e5581001 	ldrb	r1, [r8, #-1]
    48e4:	e1a00003 	mov	r0, r3
    48e8:	e1a02004 	mov	r2, r4
    48ec:	eb002699 	bl	e358 <_ungetc_r>
    48f0:	e2488001 	sub	r8, r8, #1
    48f4:	e59dc02c 	ldr	r12, [sp, #44]	; 0x2c
    48f8:	e158000c 	cmp	r8, r12
    48fc:	0afffe84 	beq	4314 <__svfscanf_r+0x384>
    4900:	e217c010 	ands	r12, r7, #16
    4904:	0a000218 	beq	516c <__svfscanf_r+0x11dc>
    4908:	e59dc02c 	ldr	r12, [sp, #44]	; 0x2c
    490c:	e06c8008 	rsb	r8, r12, r8
    4910:	e088a00a 	add	r10, r8, r10
    4914:	e59d8018 	ldr	r8, [sp, #24]
    4918:	e089900a 	add	r9, r9, r10
    491c:	e1a02008 	mov	r2, r8
    4920:	eafffdaf 	b	3fe4 <__svfscanf_r+0x54>
    4924:	e35a000a 	cmp	r10, #10
    4928:	daffffe3 	ble	48bc <__svfscanf_r+0x92c>
    492c:	e3c77d2e 	bic	r7, r7, #2944	; 0xb80
    4930:	eaffffd7 	b	4894 <__svfscanf_r+0x904>
    4934:	e59f2670 	ldr	r2, [pc, #1648]	; 4fac <__svfscanf_r+0x101c>
    4938:	e1a0a08a 	lsl	r10, r10, #1
    493c:	e192a0fa 	ldrsh	r10, [r2, r10]
    4940:	e35a0008 	cmp	r10, #8
    4944:	cafffff8 	bgt	492c <__svfscanf_r+0x99c>
    4948:	eaffffdb 	b	48bc <__svfscanf_r+0x92c>
    494c:	e3170080 	tst	r7, #128	; 0x80
    4950:	0affffd9 	beq	48bc <__svfscanf_r+0x92c>
    4954:	e3c77080 	bic	r7, r7, #128	; 0x80
    4958:	eaffffcd 	b	4894 <__svfscanf_r+0x904>
    495c:	e59f2648 	ldr	r2, [pc, #1608]	; 4fac <__svfscanf_r+0x101c>
    4960:	e1a0a08a 	lsl	r10, r10, #1
    4964:	e192a0fa 	ldrsh	r10, [r2, r10]
    4968:	e3c77d2e 	bic	r7, r7, #2944	; 0xb80
    496c:	eaffffc8 	b	4894 <__svfscanf_r+0x904>
    4970:	e3170b02 	tst	r7, #2048	; 0x800
    4974:	0affffc6 	beq	4894 <__svfscanf_r+0x904>
    4978:	e35a0000 	cmp	r10, #0
    497c:	03877c02 	orreq	r7, r7, #512	; 0x200
    4980:	03a0a008 	moveq	r10, #8
    4984:	e3170b01 	tst	r7, #1024	; 0x400
    4988:	13c77d16 	bicne	r7, r7, #1408	; 0x580
    498c:	1affffc0 	bne	4894 <__svfscanf_r+0x904>
    4990:	e3590000 	cmp	r9, #0
    4994:	e3c77d0e 	bic	r7, r7, #896	; 0x380
    4998:	12499001 	subne	r9, r9, #1
    499c:	12866001 	addne	r6, r6, #1
    49a0:	e28bb001 	add	r11, r11, #1
    49a4:	eaffffbb 	b	4898 <__svfscanf_r+0x908>
    49a8:	e08c1008 	add	r1, r12, r8
    49ac:	e3510000 	cmp	r1, #0
    49b0:	1a00000c 	bne	49e8 <__svfscanf_r+0xa58>
    49b4:	e3c77d06 	bic	r7, r7, #384	; 0x180
    49b8:	e4ca0001 	strb	r0, [r10], #1
    49bc:	e5941004 	ldr	r1, [r4, #4]
    49c0:	e2411001 	sub	r1, r1, #1
    49c4:	e3510000 	cmp	r1, #0
    49c8:	e2466001 	sub	r6, r6, #1
    49cc:	e2899001 	add	r9, r9, #1
    49d0:	e5841004 	str	r1, [r4, #4]
    49d4:	da00012c 	ble	4e8c <__svfscanf_r+0xefc>
    49d8:	e28ee001 	add	lr, lr, #1
    49dc:	e584e000 	str	lr, [r4]
    49e0:	e3560000 	cmp	r6, #0
    49e4:	1affff32 	bne	46b4 <__svfscanf_r+0x724>
    49e8:	e58db028 	str	r11, [sp, #40]	; 0x28
    49ec:	e59d3028 	ldr	r3, [sp, #40]	; 0x28
    49f0:	e3530000 	cmp	r3, #0
    49f4:	e1a0b002 	mov	r11, r2
    49f8:	13c77c01 	bicne	r7, r7, #256	; 0x100
    49fc:	e24c3001 	sub	r3, r12, #1
    4a00:	e3530001 	cmp	r3, #1
    4a04:	9afffe37 	bls	42e8 <__svfscanf_r+0x358>
    4a08:	e2483001 	sub	r3, r8, #1
    4a0c:	e3530006 	cmp	r3, #6
    4a10:	8a000014 	bhi	4a68 <__svfscanf_r+0xad8>
    4a14:	e3580002 	cmp	r8, #2
    4a18:	9a0002aa 	bls	54c8 <__svfscanf_r+0x1538>
    4a1c:	e3580003 	cmp	r8, #3
    4a20:	0a000010 	beq	4a68 <__svfscanf_r+0xad8>
    4a24:	e2483004 	sub	r3, r8, #4
    4a28:	e20330ff 	and	r3, r3, #255	; 0xff
    4a2c:	e24a6001 	sub	r6, r10, #1
    4a30:	e58d303c 	str	r3, [sp, #60]	; 0x3c
    4a34:	e1a0800a 	mov	r8, r10
    4a38:	e0636006 	rsb	r6, r3, r6
    4a3c:	e5781001 	ldrb	r1, [r8, #-1]!
    4a40:	e1a0000b 	mov	r0, r11
    4a44:	e1a02004 	mov	r2, r4
    4a48:	eb002642 	bl	e358 <_ungetc_r>
    4a4c:	e1580006 	cmp	r8, r6
    4a50:	1afffff9 	bne	4a3c <__svfscanf_r+0xaac>
    4a54:	e59dc03c 	ldr	r12, [sp, #60]	; 0x3c
    4a58:	e2499001 	sub	r9, r9, #1
    4a5c:	e1e0300c 	mvn	r3, r12
    4a60:	e08aa003 	add	r10, r10, r3
    4a64:	e06c9009 	rsb	r9, r12, r9
    4a68:	e3170c01 	tst	r7, #256	; 0x100
    4a6c:	0a00000a 	beq	4a9c <__svfscanf_r+0xb0c>
    4a70:	e3170b01 	tst	r7, #1024	; 0x400
    4a74:	1a000284 	bne	548c <__svfscanf_r+0x14fc>
    4a78:	e55a1001 	ldrb	r1, [r10, #-1]
    4a7c:	e20130df 	and	r3, r1, #223	; 0xdf
    4a80:	e3530045 	cmp	r3, #69	; 0x45
    4a84:	e2499001 	sub	r9, r9, #1
    4a88:	024aa001 	subeq	r10, r10, #1
    4a8c:	1a0001f5 	bne	5268 <__svfscanf_r+0x12d8>
    4a90:	e1a0000b 	mov	r0, r11
    4a94:	e1a02004 	mov	r2, r4
    4a98:	eb00262e 	bl	e358 <_ungetc_r>
    4a9c:	e2172010 	ands	r2, r7, #16
    4aa0:	1a0000f6 	bne	4e80 <__svfscanf_r+0xef0>
    4aa4:	e2073c06 	and	r3, r7, #1536	; 0x600
    4aa8:	e3530b01 	cmp	r3, #1024	; 0x400
    4aac:	e5ca2000 	strb	r2, [r10]
    4ab0:	0a00020a 	beq	52e0 <__svfscanf_r+0x1350>
    4ab4:	e59dc038 	ldr	r12, [sp, #56]	; 0x38
    4ab8:	e35c0000 	cmp	r12, #0
    4abc:	1a0001f5 	bne	5298 <__svfscanf_r+0x1308>
    4ac0:	e3a02000 	mov	r2, #0
    4ac4:	e1a0000b 	mov	r0, r11
    4ac8:	e59d102c 	ldr	r1, [sp, #44]	; 0x2c
    4acc:	eb001609 	bl	a2f8 <_strtod_r>
    4ad0:	e3170001 	tst	r7, #1
    4ad4:	e1a02000 	mov	r2, r0
    4ad8:	e1a03001 	mov	r3, r1
    4adc:	e59dc014 	ldr	r12, [sp, #20]
    4ae0:	1a000001 	bne	4aec <__svfscanf_r+0xb5c>
    4ae4:	e3170002 	tst	r7, #2
    4ae8:	0a000242 	beq	53f8 <__svfscanf_r+0x1468>
    4aec:	e59c1000 	ldr	r1, [r12]
    4af0:	e28cc004 	add	r12, r12, #4
    4af4:	e58dc014 	str	r12, [sp, #20]
    4af8:	e881000c 	stm	r1, {r2, r3}
    4afc:	e59dc020 	ldr	r12, [sp, #32]
    4b00:	e59d8018 	ldr	r8, [sp, #24]
    4b04:	e28cc001 	add	r12, r12, #1
    4b08:	e58dc020 	str	r12, [sp, #32]
    4b0c:	e1a02008 	mov	r2, r8
    4b10:	eafffd33 	b	3fe4 <__svfscanf_r+0x54>
    4b14:	e3580007 	cmp	r8, #7
    4b18:	1affffb2 	bne	49e8 <__svfscanf_r+0xa58>
    4b1c:	e3a08008 	mov	r8, #8
    4b20:	eaffffa4 	b	49b8 <__svfscanf_r+0xa28>
    4b24:	e3580006 	cmp	r8, #6
    4b28:	1affffae 	bne	49e8 <__svfscanf_r+0xa58>
    4b2c:	e3a08007 	mov	r8, #7
    4b30:	eaffffa0 	b	49b8 <__svfscanf_r+0xa28>
    4b34:	e35c0001 	cmp	r12, #1
    4b38:	1affffaa 	bne	49e8 <__svfscanf_r+0xa58>
    4b3c:	e3a0c002 	mov	r12, #2
    4b40:	eaffff9c 	b	49b8 <__svfscanf_r+0xa28>
    4b44:	e3580002 	cmp	r8, #2
    4b48:	1affffa6 	bne	49e8 <__svfscanf_r+0xa58>
    4b4c:	e3a08003 	mov	r8, #3
    4b50:	eaffff98 	b	49b8 <__svfscanf_r+0xa28>
    4b54:	e2071c05 	and	r1, r7, #1280	; 0x500
    4b58:	e3510b01 	cmp	r1, #1024	; 0x400
    4b5c:	0a000003 	beq	4b70 <__svfscanf_r+0xbe0>
    4b60:	e3170b01 	tst	r7, #1024	; 0x400
    4b64:	0affff9f 	beq	49e8 <__svfscanf_r+0xa58>
    4b68:	e35b0000 	cmp	r11, #0
    4b6c:	0a000252 	beq	54bc <__svfscanf_r+0x152c>
    4b70:	e3170c02 	tst	r7, #512	; 0x200
    4b74:	059d1034 	ldreq	r1, [sp, #52]	; 0x34
    4b78:	e3c77d1e 	bic	r7, r7, #1920	; 0x780
    4b7c:	0061b00b 	rsbeq	r11, r1, r11
    4b80:	058db038 	streq	r11, [sp, #56]	; 0x38
    4b84:	058da030 	streq	r10, [sp, #48]	; 0x30
    4b88:	e3877d06 	orr	r7, r7, #384	; 0x180
    4b8c:	e3a0b000 	mov	r11, #0
    4b90:	eaffff88 	b	49b8 <__svfscanf_r+0xa28>
    4b94:	e3170c01 	tst	r7, #256	; 0x100
    4b98:	0affff82 	beq	49a8 <__svfscanf_r+0xa18>
    4b9c:	e3530000 	cmp	r3, #0
    4ba0:	e3c77080 	bic	r7, r7, #128	; 0x80
    4ba4:	e28bb001 	add	r11, r11, #1
    4ba8:	12433001 	subne	r3, r3, #1
    4bac:	12866001 	addne	r6, r6, #1
    4bb0:	eaffff81 	b	49bc <__svfscanf_r+0xa2c>
    4bb4:	e3170c02 	tst	r7, #512	; 0x200
    4bb8:	0affff8a 	beq	49e8 <__svfscanf_r+0xa58>
    4bbc:	e3c77d0a 	bic	r7, r7, #640	; 0x280
    4bc0:	e58db034 	str	r11, [sp, #52]	; 0x34
    4bc4:	eaffff7b 	b	49b8 <__svfscanf_r+0xa28>
    4bc8:	e3170080 	tst	r7, #128	; 0x80
    4bcc:	0affff85 	beq	49e8 <__svfscanf_r+0xa58>
    4bd0:	e3c77080 	bic	r7, r7, #128	; 0x80
    4bd4:	eaffff77 	b	49b8 <__svfscanf_r+0xa28>
    4bd8:	e35b0000 	cmp	r11, #0
    4bdc:	035c0000 	cmpeq	r12, #0
    4be0:	1a00011d 	bne	505c <__svfscanf_r+0x10cc>
    4be4:	e2071c07 	and	r1, r7, #1792	; 0x700
    4be8:	e3510c07 	cmp	r1, #1792	; 0x700
    4bec:	03c77d1e 	biceq	r7, r7, #1920	; 0x780
    4bf0:	03a0c001 	moveq	r12, #1
    4bf4:	03a0b000 	moveq	r11, #0
    4bf8:	0affff6e 	beq	49b8 <__svfscanf_r+0xa28>
    4bfc:	e3580001 	cmp	r8, #1
    4c00:	13580004 	cmpne	r8, #4
    4c04:	1affff77 	bne	49e8 <__svfscanf_r+0xa58>
    4c08:	e2888001 	add	r8, r8, #1
    4c0c:	e20880ff 	and	r8, r8, #255	; 0xff
    4c10:	eaffff68 	b	49b8 <__svfscanf_r+0xa28>
    4c14:	e35b0000 	cmp	r11, #0
    4c18:	03580000 	cmpeq	r8, #0
    4c1c:	1a000005 	bne	4c38 <__svfscanf_r+0xca8>
    4c20:	e2071c07 	and	r1, r7, #1792	; 0x700
    4c24:	e3510c07 	cmp	r1, #1792	; 0x700
    4c28:	03c77d1e 	biceq	r7, r7, #1920	; 0x780
    4c2c:	03a08001 	moveq	r8, #1
    4c30:	03a0b000 	moveq	r11, #0
    4c34:	0affff5f 	beq	49b8 <__svfscanf_r+0xa28>
    4c38:	e3580003 	cmp	r8, #3
    4c3c:	13580005 	cmpne	r8, #5
    4c40:	0afffff0 	beq	4c08 <__svfscanf_r+0xc78>
    4c44:	eaffff67 	b	49e8 <__svfscanf_r+0xa58>
    4c48:	e0813003 	add	r3, r1, r3
    4c4c:	e5d33001 	ldrb	r3, [r3, #1]
    4c50:	e2033003 	and	r3, r3, #3
    4c54:	e3530001 	cmp	r3, #1
    4c58:	e58d2018 	str	r2, [sp, #24]
    4c5c:	03877001 	orreq	r7, r7, #1
    4c60:	e59fc348 	ldr	r12, [pc, #840]	; 4fb0 <__svfscanf_r+0x1020>
    4c64:	e5943004 	ldr	r3, [r4, #4]
    4c68:	e58dc01c 	str	r12, [sp, #28]
    4c6c:	e3530000 	cmp	r3, #0
    4c70:	e3a0c00a 	mov	r12, #10
    4c74:	e58dc024 	str	r12, [sp, #36]	; 0x24
    4c78:	e3a08003 	mov	r8, #3
    4c7c:	cafffdb2 	bgt	434c <__svfscanf_r+0x3bc>
    4c80:	e1a0000b 	mov	r0, r11
    4c84:	e1a01004 	mov	r1, r4
    4c88:	eb0013be 	bl	9b88 <__srefill_r>
    4c8c:	e3500000 	cmp	r0, #0
    4c90:	0afffdad 	beq	434c <__svfscanf_r+0x3bc>
    4c94:	eafffd89 	b	42c0 <__svfscanf_r+0x330>
    4c98:	eb000aa9 	bl	7744 <__sfp_lock_release>
    4c9c:	e3e0c000 	mvn	r12, #0
    4ca0:	e58dc020 	str	r12, [sp, #32]
    4ca4:	eafffd9b 	b	4318 <__svfscanf_r+0x388>
    4ca8:	e58d2018 	str	r2, [sp, #24]
    4cac:	e1a08002 	mov	r8, r2
    4cb0:	eafffcee 	b	4070 <__svfscanf_r+0xe0>
    4cb4:	e5d83001 	ldrb	r3, [r8, #1]
    4cb8:	e3877010 	orr	r7, r7, #16
    4cbc:	e1a08002 	mov	r8, r2
    4cc0:	eafffcfc 	b	40b8 <__svfscanf_r+0x128>
    4cc4:	e0866106 	add	r6, r6, r6, lsl #2
    4cc8:	e0833086 	add	r3, r3, r6, lsl #1
    4ccc:	e2436030 	sub	r6, r3, #48	; 0x30
    4cd0:	e5d83001 	ldrb	r3, [r8, #1]
    4cd4:	e1a08002 	mov	r8, r2
    4cd8:	eafffcf6 	b	40b8 <__svfscanf_r+0x128>
    4cdc:	e58d2018 	str	r2, [sp, #24]
    4ce0:	e3877001 	orr	r7, r7, #1
    4ce4:	eaffffdd 	b	4c60 <__svfscanf_r+0xcd0>
    4ce8:	e58d2018 	str	r2, [sp, #24]
    4cec:	e3a08004 	mov	r8, #4
    4cf0:	eafffd92 	b	4340 <__svfscanf_r+0x3b0>
    4cf4:	e5d83001 	ldrb	r3, [r8, #1]
    4cf8:	e3877002 	orr	r7, r7, #2
    4cfc:	e1a08002 	mov	r8, r2
    4d00:	eafffcec 	b	40b8 <__svfscanf_r+0x128>
    4d04:	e58d2018 	str	r2, [sp, #24]
    4d08:	e3877001 	orr	r7, r7, #1
    4d0c:	e59fc2a4 	ldr	r12, [pc, #676]	; 4fb8 <__svfscanf_r+0x1028>
    4d10:	e58dc01c 	str	r12, [sp, #28]
    4d14:	e3a0c008 	mov	r12, #8
    4d18:	e58dc024 	str	r12, [sp, #36]	; 0x24
    4d1c:	e3a08003 	mov	r8, #3
    4d20:	eafffd86 	b	4340 <__svfscanf_r+0x3b0>
    4d24:	e58d2018 	str	r2, [sp, #24]
    4d28:	e3877c02 	orr	r7, r7, #512	; 0x200
    4d2c:	e59fc284 	ldr	r12, [pc, #644]	; 4fb8 <__svfscanf_r+0x1028>
    4d30:	e58dc01c 	str	r12, [sp, #28]
    4d34:	e3a0c010 	mov	r12, #16
    4d38:	e58dc024 	str	r12, [sp, #36]	; 0x24
    4d3c:	e3a08003 	mov	r8, #3
    4d40:	eafffd7e 	b	4340 <__svfscanf_r+0x3b0>
    4d44:	e28d0058 	add	r0, sp, #88	; 0x58
    4d48:	e1a01002 	mov	r1, r2
    4d4c:	e58d2018 	str	r2, [sp, #24]
    4d50:	eb001420 	bl	9dd8 <__sccl>
    4d54:	e3877040 	orr	r7, r7, #64	; 0x40
    4d58:	e58d0018 	str	r0, [sp, #24]
    4d5c:	e3a08001 	mov	r8, #1
    4d60:	eafffd76 	b	4340 <__svfscanf_r+0x3b0>
    4d64:	e58d2018 	str	r2, [sp, #24]
    4d68:	e3877040 	orr	r7, r7, #64	; 0x40
    4d6c:	e3a08000 	mov	r8, #0
    4d70:	eafffd72 	b	4340 <__svfscanf_r+0x3b0>
    4d74:	e58d2018 	str	r2, [sp, #24]
    4d78:	eaffffb8 	b	4c60 <__svfscanf_r+0xcd0>
    4d7c:	e5d83001 	ldrb	r3, [r8, #1]
    4d80:	e3877004 	orr	r7, r7, #4
    4d84:	e1a08002 	mov	r8, r2
    4d88:	eafffcca 	b	40b8 <__svfscanf_r+0x128>
    4d8c:	e59fc21c 	ldr	r12, [pc, #540]	; 4fb0 <__svfscanf_r+0x1020>
    4d90:	e58dc01c 	str	r12, [sp, #28]
    4d94:	e3a0c000 	mov	r12, #0
    4d98:	e58d2018 	str	r2, [sp, #24]
    4d9c:	e58dc024 	str	r12, [sp, #36]	; 0x24
    4da0:	e3a08003 	mov	r8, #3
    4da4:	eafffd65 	b	4340 <__svfscanf_r+0x3b0>
    4da8:	e5d83001 	ldrb	r3, [r8, #1]
    4dac:	e353006c 	cmp	r3, #108	; 0x6c
    4db0:	05d83002 	ldrbeq	r3, [r8, #2]
    4db4:	03877002 	orreq	r7, r7, #2
    4db8:	02888002 	addeq	r8, r8, #2
    4dbc:	13877001 	orrne	r7, r7, #1
    4dc0:	11a08002 	movne	r8, r2
    4dc4:	eafffcbb 	b	40b8 <__svfscanf_r+0x128>
    4dc8:	e3170010 	tst	r7, #16
    4dcc:	e58d2018 	str	r2, [sp, #24]
    4dd0:	1a00002a 	bne	4e80 <__svfscanf_r+0xef0>
    4dd4:	e3170004 	tst	r7, #4
    4dd8:	0a00010e 	beq	5218 <__svfscanf_r+0x1288>
    4ddc:	e59dc014 	ldr	r12, [sp, #20]
    4de0:	e59c3000 	ldr	r3, [r12]
    4de4:	e28cc004 	add	r12, r12, #4
    4de8:	e1a08002 	mov	r8, r2
    4dec:	e1c390b0 	strh	r9, [r3]
    4df0:	e58dc014 	str	r12, [sp, #20]
    4df4:	eafffc99 	b	4060 <__svfscanf_r+0xd0>
    4df8:	e58d2018 	str	r2, [sp, #24]
    4dfc:	eaffffc2 	b	4d0c <__svfscanf_r+0xd7c>
    4e00:	e58d2018 	str	r2, [sp, #24]
    4e04:	e3877e22 	orr	r7, r7, #544	; 0x220
    4e08:	eaffffc7 	b	4d2c <__svfscanf_r+0xd9c>
    4e0c:	e58d2018 	str	r2, [sp, #24]
    4e10:	e3a08002 	mov	r8, #2
    4e14:	eafffd49 	b	4340 <__svfscanf_r+0x3b0>
    4e18:	e28d0050 	add	r0, sp, #80	; 0x50
    4e1c:	e3a01000 	mov	r1, #0
    4e20:	e3a02008 	mov	r2, #8
    4e24:	eb000fb6 	bl	8d04 <memset>
    4e28:	e217a010 	ands	r10, r7, #16
    4e2c:	059dc014 	ldreq	r12, [sp, #20]
    4e30:	059c8000 	ldreq	r8, [r12]
    4e34:	028cc004 	addeq	r12, r12, #4
    4e38:	058dc014 	streq	r12, [sp, #20]
    4e3c:	128d8044 	addne	r8, sp, #68	; 0x44
    4e40:	e3a07000 	mov	r7, #0
    4e44:	e5943000 	ldr	r3, [r4]
    4e48:	e5952000 	ldr	r2, [r5]
    4e4c:	e5d33000 	ldrb	r3, [r3]
    4e50:	e0823003 	add	r3, r2, r3
    4e54:	e5d33001 	ldrb	r3, [r3, #1]
    4e58:	e3130008 	tst	r3, #8
    4e5c:	1a000001 	bne	4e68 <__svfscanf_r+0xed8>
    4e60:	e3560000 	cmp	r6, #0
    4e64:	1a000125 	bne	5300 <__svfscanf_r+0x1370>
    4e68:	e35a0000 	cmp	r10, #0
    4e6c:	1a000003 	bne	4e80 <__svfscanf_r+0xef0>
    4e70:	e588a000 	str	r10, [r8]
    4e74:	e59dc020 	ldr	r12, [sp, #32]
    4e78:	e28cc001 	add	r12, r12, #1
    4e7c:	e58dc020 	str	r12, [sp, #32]
    4e80:	e59d8018 	ldr	r8, [sp, #24]
    4e84:	e1a02008 	mov	r2, r8
    4e88:	eafffc55 	b	3fe4 <__svfscanf_r+0x54>
    4e8c:	e1a00002 	mov	r0, r2
    4e90:	e1a01004 	mov	r1, r4
    4e94:	e58d2010 	str	r2, [sp, #16]
    4e98:	e58d3008 	str	r3, [sp, #8]
    4e9c:	e58dc00c 	str	r12, [sp, #12]
    4ea0:	eb001338 	bl	9b88 <__srefill_r>
    4ea4:	e28d3008 	add	r3, sp, #8
    4ea8:	e3500000 	cmp	r0, #0
    4eac:	e59d2010 	ldr	r2, [sp, #16]
    4eb0:	e8931008 	ldm	r3, {r3, r12}
    4eb4:	0afffec9 	beq	49e0 <__svfscanf_r+0xa50>
    4eb8:	eafffeca 	b	49e8 <__svfscanf_r+0xa58>
    4ebc:	e1a00003 	mov	r0, r3
    4ec0:	e1a01004 	mov	r1, r4
    4ec4:	e58d3008 	str	r3, [sp, #8]
    4ec8:	e58dc00c 	str	r12, [sp, #12]
    4ecc:	eb00132d 	bl	9b88 <__srefill_r>
    4ed0:	e28d3008 	add	r3, sp, #8
    4ed4:	e3500000 	cmp	r0, #0
    4ed8:	e8931008 	ldm	r3, {r3, r12}
    4edc:	0afffe74 	beq	48b4 <__svfscanf_r+0x924>
    4ee0:	eafffe75 	b	48bc <__svfscanf_r+0x92c>
    4ee4:	e59dc014 	ldr	r12, [sp, #20]
    4ee8:	e59c8000 	ldr	r8, [r12]
    4eec:	e0883006 	add	r3, r8, r6
    4ef0:	e28ca004 	add	r10, r12, #4
    4ef4:	e2887001 	add	r7, r8, #1
    4ef8:	e1a0c008 	mov	r12, r8
    4efc:	e5942000 	ldr	r2, [r4]
    4f00:	e1a08003 	mov	r8, r3
    4f04:	ea000000 	b	4f0c <__svfscanf_r+0xf7c>
    4f08:	e2877001 	add	r7, r7, #1
    4f0c:	e5d21000 	ldrb	r1, [r2]
    4f10:	e28d0fae 	add	r0, sp, #696	; 0x2b8
    4f14:	e0801001 	add	r1, r0, r1
    4f18:	e5511260 	ldrb	r1, [r1, #-608]	; 0xfffffda0
    4f1c:	e3510000 	cmp	r1, #0
    4f20:	e2476001 	sub	r6, r7, #1
    4f24:	0a000014 	beq	4f7c <__svfscanf_r+0xfec>
    4f28:	e5941004 	ldr	r1, [r4, #4]
    4f2c:	e2411001 	sub	r1, r1, #1
    4f30:	e5841004 	str	r1, [r4, #4]
    4f34:	e4d21001 	ldrb	r1, [r2], #1
    4f38:	e1570008 	cmp	r7, r8
    4f3c:	e5471001 	strb	r1, [r7, #-1]
    4f40:	e1a06007 	mov	r6, r7
    4f44:	e5842000 	str	r2, [r4]
    4f48:	0a00000b 	beq	4f7c <__svfscanf_r+0xfec>
    4f4c:	e5941004 	ldr	r1, [r4, #4]
    4f50:	e3510000 	cmp	r1, #0
    4f54:	caffffeb 	bgt	4f08 <__svfscanf_r+0xf78>
    4f58:	e1a0000b 	mov	r0, r11
    4f5c:	e1a01004 	mov	r1, r4
    4f60:	e58dc00c 	str	r12, [sp, #12]
    4f64:	eb001307 	bl	9b88 <__srefill_r>
    4f68:	e3500000 	cmp	r0, #0
    4f6c:	e59dc00c 	ldr	r12, [sp, #12]
    4f70:	1a00010a 	bne	53a0 <__svfscanf_r+0x1410>
    4f74:	e5942000 	ldr	r2, [r4]
    4f78:	eaffffe2 	b	4f08 <__svfscanf_r+0xf78>
    4f7c:	e1a0800c 	mov	r8, r12
    4f80:	e0567008 	subs	r7, r6, r8
    4f84:	0afffce2 	beq	4314 <__svfscanf_r+0x384>
    4f88:	e59dc020 	ldr	r12, [sp, #32]
    4f8c:	e3a03000 	mov	r3, #0
    4f90:	e28cc001 	add	r12, r12, #1
    4f94:	e5c63000 	strb	r3, [r6]
    4f98:	e58dc020 	str	r12, [sp, #32]
    4f9c:	e58da014 	str	r10, [sp, #20]
    4fa0:	eafffdad 	b	465c <__svfscanf_r+0x6cc>
    4fa4:	00014580 	.word	0x00014580
    4fa8:	0000015d 	.word	0x0000015d
    4fac:	00013dc4 	.word	0x00013dc4
    4fb0:	0000ba08 	.word	0x0000ba08
    4fb4:	00013de8 	.word	0x00013de8
    4fb8:	0000be7c 	.word	0x0000be7c
    4fbc:	e5951000 	ldr	r1, [r5]
    4fc0:	e5943000 	ldr	r3, [r4]
    4fc4:	e1a07002 	mov	r7, r2
    4fc8:	e5d32000 	ldrb	r2, [r3]
    4fcc:	e0812002 	add	r2, r1, r2
    4fd0:	e5d22001 	ldrb	r2, [r2, #1]
    4fd4:	e3120008 	tst	r2, #8
    4fd8:	e2833001 	add	r3, r3, #1
    4fdc:	1afffd9e 	bne	465c <__svfscanf_r+0x6cc>
    4fe0:	e5942004 	ldr	r2, [r4, #4]
    4fe4:	e2877001 	add	r7, r7, #1
    4fe8:	e2422001 	sub	r2, r2, #1
    4fec:	e1560007 	cmp	r6, r7
    4ff0:	e5843000 	str	r3, [r4]
    4ff4:	e5842004 	str	r2, [r4, #4]
    4ff8:	0afffd97 	beq	465c <__svfscanf_r+0x6cc>
    4ffc:	e3520000 	cmp	r2, #0
    5000:	cafffff0 	bgt	4fc8 <__svfscanf_r+0x1038>
    5004:	e1a0000b 	mov	r0, r11
    5008:	e1a01004 	mov	r1, r4
    500c:	eb0012dd 	bl	9b88 <__srefill_r>
    5010:	e3500000 	cmp	r0, #0
    5014:	1afffd90 	bne	465c <__svfscanf_r+0x6cc>
    5018:	e5951000 	ldr	r1, [r5]
    501c:	e5943000 	ldr	r3, [r4]
    5020:	eaffffe8 	b	4fc8 <__svfscanf_r+0x1038>
    5024:	e1a02008 	mov	r2, r8
    5028:	e1a08003 	mov	r8, r3
    502c:	e1a03002 	mov	r3, r2
    5030:	e3a02000 	mov	r2, #0
    5034:	e06aa008 	rsb	r10, r10, r8
    5038:	e5c82000 	strb	r2, [r8]
    503c:	e089900a 	add	r9, r9, r10
    5040:	e59dc020 	ldr	r12, [sp, #32]
    5044:	e59d8018 	ldr	r8, [sp, #24]
    5048:	e28cc001 	add	r12, r12, #1
    504c:	e58dc020 	str	r12, [sp, #32]
    5050:	e58d3014 	str	r3, [sp, #20]
    5054:	e1a02008 	mov	r2, r8
    5058:	eafffbe1 	b	3fe4 <__svfscanf_r+0x54>
    505c:	e35c0002 	cmp	r12, #2
    5060:	1afffee5 	bne	4bfc <__svfscanf_r+0xc6c>
    5064:	e3a0c003 	mov	r12, #3
    5068:	eafffe52 	b	49b8 <__svfscanf_r+0xa28>
    506c:	e28d0048 	add	r0, sp, #72	; 0x48
    5070:	e3a01000 	mov	r1, #0
    5074:	e3a02008 	mov	r2, #8
    5078:	eb000f21 	bl	8d04 <memset>
    507c:	e217a010 	ands	r10, r7, #16
    5080:	059dc014 	ldreq	r12, [sp, #20]
    5084:	059c8000 	ldreq	r8, [r12]
    5088:	028cc004 	addeq	r12, r12, #4
    508c:	058dc014 	streq	r12, [sp, #20]
    5090:	13a08000 	movne	r8, #0
    5094:	e3a07000 	mov	r7, #0
    5098:	ea00000c 	b	50d0 <__svfscanf_r+0x1140>
    509c:	e35a0000 	cmp	r10, #0
    50a0:	0588a000 	streq	r10, [r8]
    50a4:	e5943004 	ldr	r3, [r4, #4]
    50a8:	e35a0000 	cmp	r10, #0
    50ac:	e0899007 	add	r9, r9, r7
    50b0:	02888004 	addeq	r8, r8, #4
    50b4:	01a0700a 	moveq	r7, r10
    50b8:	13a07000 	movne	r7, #0
    50bc:	e3530000 	cmp	r3, #0
    50c0:	e2466001 	sub	r6, r6, #1
    50c4:	da00001e 	ble	5144 <__svfscanf_r+0x11b4>
    50c8:	e3560000 	cmp	r6, #0
    50cc:	0a000023 	beq	5160 <__svfscanf_r+0x11d0>
    50d0:	eb000b96 	bl	7f30 <__locale_mb_cur_max>
    50d4:	e1500007 	cmp	r0, r7
    50d8:	0afffc78 	beq	42c0 <__svfscanf_r+0x330>
    50dc:	e5943000 	ldr	r3, [r4]
    50e0:	e5942004 	ldr	r2, [r4, #4]
    50e4:	e4d3e001 	ldrb	lr, [r3], #1
    50e8:	e28d0fae 	add	r0, sp, #696	; 0x2b8
    50ec:	e080c007 	add	r12, r0, r7
    50f0:	e2422001 	sub	r2, r2, #1
    50f4:	e28d1048 	add	r1, sp, #72	; 0x48
    50f8:	e2877001 	add	r7, r7, #1
    50fc:	e5842004 	str	r2, [r4, #4]
    5100:	e5843000 	str	r3, [r4]
    5104:	e1a0000b 	mov	r0, r11
    5108:	e58d1000 	str	r1, [sp]
    510c:	e28d2f56 	add	r2, sp, #344	; 0x158
    5110:	e1a01008 	mov	r1, r8
    5114:	e1a03007 	mov	r3, r7
    5118:	e54ce160 	strb	lr, [r12, #-352]	; 0xfffffea0
    511c:	eb000db7 	bl	8800 <_mbrtowc_r>
    5120:	e3700001 	cmn	r0, #1
    5124:	0afffc65 	beq	42c0 <__svfscanf_r+0x330>
    5128:	e3500000 	cmp	r0, #0
    512c:	0affffda 	beq	509c <__svfscanf_r+0x110c>
    5130:	e3700002 	cmn	r0, #2
    5134:	1affffda 	bne	50a4 <__svfscanf_r+0x1114>
    5138:	e5943004 	ldr	r3, [r4, #4]
    513c:	e3530000 	cmp	r3, #0
    5140:	caffffe0 	bgt	50c8 <__svfscanf_r+0x1138>
    5144:	e1a0000b 	mov	r0, r11
    5148:	e1a01004 	mov	r1, r4
    514c:	eb00128d 	bl	9b88 <__srefill_r>
    5150:	e3500000 	cmp	r0, #0
    5154:	0affffdb 	beq	50c8 <__svfscanf_r+0x1138>
    5158:	e3570000 	cmp	r7, #0
    515c:	1afffc57 	bne	42c0 <__svfscanf_r+0x330>
    5160:	e35a0000 	cmp	r10, #0
    5164:	0affff42 	beq	4e74 <__svfscanf_r+0xee4>
    5168:	eaffff44 	b	4e80 <__svfscanf_r+0xef0>
    516c:	e1a0200c 	mov	r2, r12
    5170:	e5c8c000 	strb	r12, [r8]
    5174:	e1a0000b 	mov	r0, r11
    5178:	e59d102c 	ldr	r1, [sp, #44]	; 0x2c
    517c:	e59d3024 	ldr	r3, [sp, #36]	; 0x24
    5180:	e59dc01c 	ldr	r12, [sp, #28]
    5184:	e1a0e00f 	mov	lr, pc
    5188:	e12fff1c 	bx	r12
    518c:	e3170020 	tst	r7, #32
    5190:	1a00000a 	bne	51c0 <__svfscanf_r+0x1230>
    5194:	e3170004 	tst	r7, #4
    5198:	0a000084 	beq	53b0 <__svfscanf_r+0x1420>
    519c:	e59dc014 	ldr	r12, [sp, #20]
    51a0:	e59c3000 	ldr	r3, [r12]
    51a4:	e28cc004 	add	r12, r12, #4
    51a8:	e58dc014 	str	r12, [sp, #20]
    51ac:	e1c300b0 	strh	r0, [r3]
    51b0:	e59dc020 	ldr	r12, [sp, #32]
    51b4:	e28cc001 	add	r12, r12, #1
    51b8:	e58dc020 	str	r12, [sp, #32]
    51bc:	eafffdd1 	b	4908 <__svfscanf_r+0x978>
    51c0:	e59dc014 	ldr	r12, [sp, #20]
    51c4:	e59c3000 	ldr	r3, [r12]
    51c8:	e28cc004 	add	r12, r12, #4
    51cc:	e58dc014 	str	r12, [sp, #20]
    51d0:	e5830000 	str	r0, [r3]
    51d4:	eafffff5 	b	51b0 <__svfscanf_r+0x1220>
    51d8:	e3570000 	cmp	r7, #0
    51dc:	1afffd1e 	bne	465c <__svfscanf_r+0x6cc>
    51e0:	eafffc4b 	b	4314 <__svfscanf_r+0x384>
    51e4:	e59dc014 	ldr	r12, [sp, #20]
    51e8:	e1a03006 	mov	r3, r6
    51ec:	e59c1000 	ldr	r1, [r12]
    51f0:	e1a0000b 	mov	r0, r11
    51f4:	e58d4000 	str	r4, [sp]
    51f8:	e3a02001 	mov	r2, #1
    51fc:	eb000976 	bl	77dc <_fread_r>
    5200:	e59dc014 	ldr	r12, [sp, #20]
    5204:	e3500000 	cmp	r0, #0
    5208:	e28c3004 	add	r3, r12, #4
    520c:	0afffc2b 	beq	42c0 <__svfscanf_r+0x330>
    5210:	e0809009 	add	r9, r0, r9
    5214:	eaffff89 	b	5040 <__svfscanf_r+0x10b0>
    5218:	e3170001 	tst	r7, #1
    521c:	1a00000a 	bne	524c <__svfscanf_r+0x12bc>
    5220:	e3170002 	tst	r7, #2
    5224:	0a000008 	beq	524c <__svfscanf_r+0x12bc>
    5228:	e59dc014 	ldr	r12, [sp, #20]
    522c:	e59c3000 	ldr	r3, [r12]
    5230:	e1a01fc9 	asr	r1, r9, #31
    5234:	e28cc004 	add	r12, r12, #4
    5238:	e5839000 	str	r9, [r3]
    523c:	e5831004 	str	r1, [r3, #4]
    5240:	e58dc014 	str	r12, [sp, #20]
    5244:	e59d8018 	ldr	r8, [sp, #24]
    5248:	eafffb84 	b	4060 <__svfscanf_r+0xd0>
    524c:	e59dc014 	ldr	r12, [sp, #20]
    5250:	e59c3000 	ldr	r3, [r12]
    5254:	e28cc004 	add	r12, r12, #4
    5258:	e59d8018 	ldr	r8, [sp, #24]
    525c:	e5839000 	str	r9, [r3]
    5260:	e58dc014 	str	r12, [sp, #20]
    5264:	eafffb7d 	b	4060 <__svfscanf_r+0xd0>
    5268:	e1a0000b 	mov	r0, r11
    526c:	e1a02004 	mov	r2, r4
    5270:	eb002438 	bl	e358 <_ungetc_r>
    5274:	e2499001 	sub	r9, r9, #1
    5278:	e55a1002 	ldrb	r1, [r10, #-2]
    527c:	e24aa002 	sub	r10, r10, #2
    5280:	eafffe02 	b	4a90 <__svfscanf_r+0xb00>
    5284:	e0663003 	rsb	r3, r6, r3
    5288:	e0822006 	add	r2, r2, r6
    528c:	e884000c 	stm	r4, {r2, r3}
    5290:	e0877006 	add	r7, r7, r6
    5294:	eafffcf0 	b	465c <__svfscanf_r+0x6cc>
    5298:	e59dc030 	ldr	r12, [sp, #48]	; 0x30
    529c:	e1a0000b 	mov	r0, r11
    52a0:	e28c1001 	add	r1, r12, #1
    52a4:	e3a0300a 	mov	r3, #10
    52a8:	eb0019d6 	bl	ba08 <_strtol_r>
    52ac:	e59dc038 	ldr	r12, [sp, #56]	; 0x38
    52b0:	e06c2000 	rsb	r2, r12, r0
    52b4:	e59dc030 	ldr	r12, [sp, #48]	; 0x30
    52b8:	e28d3faa 	add	r3, sp, #680	; 0x2a8
    52bc:	e2833003 	add	r3, r3, #3
    52c0:	e15c0003 	cmp	r12, r3
    52c4:	228dcfaa 	addcs	r12, sp, #680	; 0x2a8
    52c8:	228cc002 	addcs	r12, r12, #2
    52cc:	258dc030 	strcs	r12, [sp, #48]	; 0x30
    52d0:	e51f1324 	ldr	r1, [pc, #-804]	; 4fb4 <__svfscanf_r+0x1024>
    52d4:	e59d0030 	ldr	r0, [sp, #48]	; 0x30
    52d8:	eb00130e 	bl	9f18 <sprintf>
    52dc:	eafffdf7 	b	4ac0 <__svfscanf_r+0xb30>
    52e0:	e59d3028 	ldr	r3, [sp, #40]	; 0x28
    52e4:	e59dc034 	ldr	r12, [sp, #52]	; 0x34
    52e8:	e06c2003 	rsb	r2, r12, r3
    52ec:	e3520000 	cmp	r2, #0
    52f0:	158da030 	strne	r10, [sp, #48]	; 0x30
    52f4:	e2622000 	rsb	r2, r2, #0
    52f8:	1affffed 	bne	52b4 <__svfscanf_r+0x1324>
    52fc:	eafffdef 	b	4ac0 <__svfscanf_r+0xb30>
    5300:	eb000b0a 	bl	7f30 <__locale_mb_cur_max>
    5304:	e1500007 	cmp	r0, r7
    5308:	0afffbec 	beq	42c0 <__svfscanf_r+0x330>
    530c:	e5943000 	ldr	r3, [r4]
    5310:	e5942004 	ldr	r2, [r4, #4]
    5314:	e4d3e001 	ldrb	lr, [r3], #1
    5318:	e28d0fae 	add	r0, sp, #696	; 0x2b8
    531c:	e080c007 	add	r12, r0, r7
    5320:	e2422001 	sub	r2, r2, #1
    5324:	e28d1050 	add	r1, sp, #80	; 0x50
    5328:	e2877001 	add	r7, r7, #1
    532c:	e5842004 	str	r2, [r4, #4]
    5330:	e5843000 	str	r3, [r4]
    5334:	e1a0000b 	mov	r0, r11
    5338:	e58d1000 	str	r1, [sp]
    533c:	e28d2f56 	add	r2, sp, #344	; 0x158
    5340:	e1a01008 	mov	r1, r8
    5344:	e1a03007 	mov	r3, r7
    5348:	e54ce160 	strb	lr, [r12, #-352]	; 0xfffffea0
    534c:	eb000d2b 	bl	8800 <_mbrtowc_r>
    5350:	e3700001 	cmn	r0, #1
    5354:	0afffbd9 	beq	42c0 <__svfscanf_r+0x330>
    5358:	e3500000 	cmp	r0, #0
    535c:	05880000 	streq	r0, [r8]
    5360:	1a000034 	bne	5438 <__svfscanf_r+0x14a8>
    5364:	eb000aca 	bl	7e94 <iswspace>
    5368:	e3500000 	cmp	r0, #0
    536c:	0a000035 	beq	5448 <__svfscanf_r+0x14b8>
    5370:	e3570000 	cmp	r7, #0
    5374:	0afffebb 	beq	4e68 <__svfscanf_r+0xed8>
    5378:	e28d2f56 	add	r2, sp, #344	; 0x158
    537c:	e0826007 	add	r6, r2, r7
    5380:	e2477001 	sub	r7, r7, #1
    5384:	e1a0000b 	mov	r0, r11
    5388:	e5761001 	ldrb	r1, [r6, #-1]!
    538c:	e1a02004 	mov	r2, r4
    5390:	eb0023f0 	bl	e358 <_ungetc_r>
    5394:	e3570000 	cmp	r7, #0
    5398:	1afffff8 	bne	5380 <__svfscanf_r+0x13f0>
    539c:	eafffeb1 	b	4e68 <__svfscanf_r+0xed8>
    53a0:	e15c0007 	cmp	r12, r7
    53a4:	e1a0800c 	mov	r8, r12
    53a8:	1afffef4 	bne	4f80 <__svfscanf_r+0xff0>
    53ac:	eafffbc3 	b	42c0 <__svfscanf_r+0x330>
    53b0:	e2172001 	ands	r2, r7, #1
    53b4:	1affff81 	bne	51c0 <__svfscanf_r+0x1230>
    53b8:	e3170002 	tst	r7, #2
    53bc:	0a00004f 	beq	5500 <__svfscanf_r+0x1570>
    53c0:	e51f0410 	ldr	r0, [pc, #-1040]	; 4fb8 <__svfscanf_r+0x1028>
    53c4:	e59dc01c 	ldr	r12, [sp, #28]
    53c8:	e15c0000 	cmp	r12, r0
    53cc:	e59d102c 	ldr	r1, [sp, #44]	; 0x2c
    53d0:	e1a0000b 	mov	r0, r11
    53d4:	e59d3024 	ldr	r3, [sp, #36]	; 0x24
    53d8:	0a000046 	beq	54f8 <__svfscanf_r+0x1568>
    53dc:	eb001a07 	bl	bc00 <_strtoll_r>
    53e0:	e59dc014 	ldr	r12, [sp, #20]
    53e4:	e59c3000 	ldr	r3, [r12]
    53e8:	e28cc004 	add	r12, r12, #4
    53ec:	e58dc014 	str	r12, [sp, #20]
    53f0:	e8830003 	stm	r3, {r0, r1}
    53f4:	eaffff6d 	b	51b0 <__svfscanf_r+0x1220>
    53f8:	e59c6000 	ldr	r6, [r12]
    53fc:	e58d0010 	str	r0, [sp, #16]
    5400:	e58d1008 	str	r1, [sp, #8]
    5404:	eb001248 	bl	9d2c <__fpclassifyd>
    5408:	e59dc014 	ldr	r12, [sp, #20]
    540c:	e3500000 	cmp	r0, #0
    5410:	e28c7004 	add	r7, r12, #4
    5414:	e59d2010 	ldr	r2, [sp, #16]
    5418:	e59d3008 	ldr	r3, [sp, #8]
    541c:	0a00003d 	beq	5518 <__svfscanf_r+0x1588>
    5420:	e1a00002 	mov	r0, r2
    5424:	e1a01003 	mov	r1, r3
    5428:	eb0037ac 	bl	132e0 <__aeabi_d2f>
    542c:	e58d7014 	str	r7, [sp, #20]
    5430:	e5860000 	str	r0, [r6]
    5434:	eafffdb0 	b	4afc <__svfscanf_r+0xb6c>
    5438:	e3700002 	cmn	r0, #2
    543c:	0a000007 	beq	5460 <__svfscanf_r+0x14d0>
    5440:	e5980000 	ldr	r0, [r8]
    5444:	eaffffc6 	b	5364 <__svfscanf_r+0x13d4>
    5448:	e35a0000 	cmp	r10, #0
    544c:	e0899007 	add	r9, r9, r7
    5450:	e2466001 	sub	r6, r6, #1
    5454:	02888004 	addeq	r8, r8, #4
    5458:	01a0700a 	moveq	r7, r10
    545c:	11a07000 	movne	r7, r0
    5460:	e5943004 	ldr	r3, [r4, #4]
    5464:	e3530000 	cmp	r3, #0
    5468:	cafffe75 	bgt	4e44 <__svfscanf_r+0xeb4>
    546c:	e1a0000b 	mov	r0, r11
    5470:	e1a01004 	mov	r1, r4
    5474:	eb0011c3 	bl	9b88 <__srefill_r>
    5478:	e3500000 	cmp	r0, #0
    547c:	0afffe70 	beq	4e44 <__svfscanf_r+0xeb4>
    5480:	e3570000 	cmp	r7, #0
    5484:	1afffb8d 	bne	42c0 <__svfscanf_r+0x330>
    5488:	eafffe76 	b	4e68 <__svfscanf_r+0xed8>
    548c:	e59dc02c 	ldr	r12, [sp, #44]	; 0x2c
    5490:	e15a000c 	cmp	r10, r12
    5494:	9afffb9e 	bls	4314 <__svfscanf_r+0x384>
    5498:	e1a0500a 	mov	r5, r10
    549c:	e5751001 	ldrb	r1, [r5, #-1]!
    54a0:	e1a0000b 	mov	r0, r11
    54a4:	e1a02004 	mov	r2, r4
    54a8:	eb0023aa 	bl	e358 <_ungetc_r>
    54ac:	e59dc02c 	ldr	r12, [sp, #44]	; 0x2c
    54b0:	e155000c 	cmp	r5, r12
    54b4:	1afffff8 	bne	549c <__svfscanf_r+0x150c>
    54b8:	eafffb95 	b	4314 <__svfscanf_r+0x384>
    54bc:	e58db028 	str	r11, [sp, #40]	; 0x28
    54c0:	e1a0b002 	mov	r11, r2
    54c4:	eafffd4c 	b	49fc <__svfscanf_r+0xa6c>
    54c8:	e59dc02c 	ldr	r12, [sp, #44]	; 0x2c
    54cc:	e15a000c 	cmp	r10, r12
    54d0:	81a0500a 	movhi	r5, r10
    54d4:	9afffb8e 	bls	4314 <__svfscanf_r+0x384>
    54d8:	e5751001 	ldrb	r1, [r5, #-1]!
    54dc:	e1a0000b 	mov	r0, r11
    54e0:	e1a02004 	mov	r2, r4
    54e4:	eb00239b 	bl	e358 <_ungetc_r>
    54e8:	e59dc02c 	ldr	r12, [sp, #44]	; 0x2c
    54ec:	e155000c 	cmp	r5, r12
    54f0:	1afffff8 	bne	54d8 <__svfscanf_r+0x1548>
    54f4:	eafffb86 	b	4314 <__svfscanf_r+0x384>
    54f8:	eb001ae2 	bl	c088 <_strtoull_r>
    54fc:	eaffffb7 	b	53e0 <__svfscanf_r+0x1450>
    5500:	e59dc014 	ldr	r12, [sp, #20]
    5504:	e59c3000 	ldr	r3, [r12]
    5508:	e28cc004 	add	r12, r12, #4
    550c:	e5830000 	str	r0, [r3]
    5510:	e58dc014 	str	r12, [sp, #20]
    5514:	eaffff25 	b	51b0 <__svfscanf_r+0x1220>
    5518:	eb001261 	bl	9ea4 <nanf>
    551c:	e58d7014 	str	r7, [sp, #20]
    5520:	e5860000 	str	r0, [r6]
    5524:	eafffd74 	b	4afc <__svfscanf_r+0xb6c>

00005528 <_vfscanf_r>:
    5528:	e92d4010 	push	{r4, lr}
    552c:	e2504000 	subs	r4, r0, #0
    5530:	e24dd010 	sub	sp, sp, #16
    5534:	0a000009 	beq	5560 <_vfscanf_r+0x38>
    5538:	e594c038 	ldr	r12, [r4, #56]	; 0x38
    553c:	e35c0000 	cmp	r12, #0
    5540:	1a000006 	bne	5560 <_vfscanf_r+0x38>
    5544:	e58d100c 	str	r1, [sp, #12]
    5548:	e58d2008 	str	r2, [sp, #8]
    554c:	e58d3004 	str	r3, [sp, #4]
    5550:	eb00081e 	bl	75d0 <__sinit>
    5554:	e59d3004 	ldr	r3, [sp, #4]
    5558:	e59d2008 	ldr	r2, [sp, #8]
    555c:	e59d100c 	ldr	r1, [sp, #12]
    5560:	e1a00004 	mov	r0, r4
    5564:	e28dd010 	add	sp, sp, #16
    5568:	e8bd4010 	pop	{r4, lr}
    556c:	eafffa87 	b	3f90 <__svfscanf_r>

00005570 <__svfscanf>:
    5570:	e52d4004 	push	{r4}		; (str r4, [sp, #-4]!)
    5574:	e1a03002 	mov	r3, r2
    5578:	e59f2018 	ldr	r2, [pc, #24]	; 5598 <__svfscanf+0x28>
    557c:	e1a04000 	mov	r4, r0
    5580:	e1a0c001 	mov	r12, r1
    5584:	e5920000 	ldr	r0, [r2]
    5588:	e1a01004 	mov	r1, r4
    558c:	e1a0200c 	mov	r2, r12
    5590:	e8bd0010 	ldmfd	sp!, {r4}
    5594:	eafffa7d 	b	3f90 <__svfscanf_r>
    5598:	00014150 	.word	0x00014150

0000559c <vfscanf>:
    559c:	e92d41f0 	push	{r4, r5, r6, r7, r8, lr}
    55a0:	e59f4044 	ldr	r4, [pc, #68]	; 55ec <vfscanf+0x50>
    55a4:	e594c000 	ldr	r12, [r4]
    55a8:	e35c0000 	cmp	r12, #0
    55ac:	e1a07000 	mov	r7, r0
    55b0:	e1a06001 	mov	r6, r1
    55b4:	e1a05002 	mov	r5, r2
    55b8:	0a000005 	beq	55d4 <vfscanf+0x38>
    55bc:	e59c3038 	ldr	r3, [r12, #56]	; 0x38
    55c0:	e3530000 	cmp	r3, #0
    55c4:	1a000002 	bne	55d4 <vfscanf+0x38>
    55c8:	e1a0000c 	mov	r0, r12
    55cc:	eb0007ff 	bl	75d0 <__sinit>
    55d0:	e594c000 	ldr	r12, [r4]
    55d4:	e1a0000c 	mov	r0, r12
    55d8:	e1a01007 	mov	r1, r7
    55dc:	e1a02006 	mov	r2, r6
    55e0:	e1a03005 	mov	r3, r5
    55e4:	e8bd41f0 	pop	{r4, r5, r6, r7, r8, lr}
    55e8:	eafffa68 	b	3f90 <__svfscanf_r>
    55ec:	00014150 	.word	0x00014150

000055f0 <__swsetup_r>:
    55f0:	e92d4038 	push	{r3, r4, r5, lr}
    55f4:	e59f3128 	ldr	r3, [pc, #296]	; 5724 <__swsetup_r+0x134>
    55f8:	e5933000 	ldr	r3, [r3]
    55fc:	e3530000 	cmp	r3, #0
    5600:	e1a05000 	mov	r5, r0
    5604:	e1a04001 	mov	r4, r1
    5608:	0a000002 	beq	5618 <__swsetup_r+0x28>
    560c:	e5932038 	ldr	r2, [r3, #56]	; 0x38
    5610:	e3520000 	cmp	r2, #0
    5614:	0a00002e 	beq	56d4 <__swsetup_r+0xe4>
    5618:	e1d430bc 	ldrh	r3, [r4, #12]
    561c:	e3130008 	tst	r3, #8
    5620:	e1a02003 	mov	r2, r3
    5624:	0a00000c 	beq	565c <__swsetup_r+0x6c>
    5628:	e5942010 	ldr	r2, [r4, #16]
    562c:	e3520000 	cmp	r2, #0
    5630:	0a000012 	beq	5680 <__swsetup_r+0x90>
    5634:	e2131001 	ands	r1, r3, #1
    5638:	1a000019 	bne	56a4 <__swsetup_r+0xb4>
    563c:	e3130002 	tst	r3, #2
    5640:	05941014 	ldreq	r1, [r4, #20]
    5644:	e3520000 	cmp	r2, #0
    5648:	e5841008 	str	r1, [r4, #8]
    564c:	0a00001b 	beq	56c0 <__swsetup_r+0xd0>
    5650:	e3a00000 	mov	r0, #0
    5654:	e8bd4038 	pop	{r3, r4, r5, lr}
    5658:	e12fff1e 	bx	lr
    565c:	e3130010 	tst	r3, #16
    5660:	0a000019 	beq	56cc <__swsetup_r+0xdc>
    5664:	e3120004 	tst	r2, #4
    5668:	1a00001c 	bne	56e0 <__swsetup_r+0xf0>
    566c:	e5942010 	ldr	r2, [r4, #16]
    5670:	e3833008 	orr	r3, r3, #8
    5674:	e3520000 	cmp	r2, #0
    5678:	e1c430bc 	strh	r3, [r4, #12]
    567c:	1affffec 	bne	5634 <__swsetup_r+0x44>
    5680:	e2031d0a 	and	r1, r3, #640	; 0x280
    5684:	e3510c02 	cmp	r1, #512	; 0x200
    5688:	0affffe9 	beq	5634 <__swsetup_r+0x44>
    568c:	e1a00005 	mov	r0, r5
    5690:	e1a01004 	mov	r1, r4
    5694:	eb000a3b 	bl	7f88 <__smakebuf_r>
    5698:	e1d430bc 	ldrh	r3, [r4, #12]
    569c:	e5942010 	ldr	r2, [r4, #16]
    56a0:	eaffffe3 	b	5634 <__swsetup_r+0x44>
    56a4:	e5943014 	ldr	r3, [r4, #20]
    56a8:	e3a01000 	mov	r1, #0
    56ac:	e2633000 	rsb	r3, r3, #0
    56b0:	e3520000 	cmp	r2, #0
    56b4:	e5841008 	str	r1, [r4, #8]
    56b8:	e5843018 	str	r3, [r4, #24]
    56bc:	1affffe3 	bne	5650 <__swsetup_r+0x60>
    56c0:	e1d430bc 	ldrh	r3, [r4, #12]
    56c4:	e3130080 	tst	r3, #128	; 0x80
    56c8:	0affffe0 	beq	5650 <__swsetup_r+0x60>
    56cc:	e3e00000 	mvn	r0, #0
    56d0:	eaffffdf 	b	5654 <__swsetup_r+0x64>
    56d4:	e1a00003 	mov	r0, r3
    56d8:	eb0007bc 	bl	75d0 <__sinit>
    56dc:	eaffffcd 	b	5618 <__swsetup_r+0x28>
    56e0:	e5941030 	ldr	r1, [r4, #48]	; 0x30
    56e4:	e3510000 	cmp	r1, #0
    56e8:	0a000007 	beq	570c <__swsetup_r+0x11c>
    56ec:	e2842040 	add	r2, r4, #64	; 0x40
    56f0:	e1510002 	cmp	r1, r2
    56f4:	0a000002 	beq	5704 <__swsetup_r+0x114>
    56f8:	e1a00005 	mov	r0, r5
    56fc:	eb000904 	bl	7b14 <_free_r>
    5700:	e1d430bc 	ldrh	r3, [r4, #12]
    5704:	e3a02000 	mov	r2, #0
    5708:	e5842030 	str	r2, [r4, #48]	; 0x30
    570c:	e5942010 	ldr	r2, [r4, #16]
    5710:	e3a01000 	mov	r1, #0
    5714:	e3c33024 	bic	r3, r3, #36	; 0x24
    5718:	e5841004 	str	r1, [r4, #4]
    571c:	e5842000 	str	r2, [r4]
    5720:	eaffffd2 	b	5670 <__swsetup_r+0x80>
    5724:	00014150 	.word	0x00014150

00005728 <__register_exitproc>:
    5728:	e59fc0e4 	ldr	r12, [pc, #228]	; 5814 <__register_exitproc+0xec>
    572c:	e92d41f0 	push	{r4, r5, r6, r7, r8, lr}
    5730:	e59c4000 	ldr	r4, [r12]
    5734:	e594c148 	ldr	r12, [r4, #328]	; 0x148
    5738:	e35c0000 	cmp	r12, #0
    573c:	0284cf53 	addeq	r12, r4, #332	; 0x14c
    5740:	e59c5004 	ldr	r5, [r12, #4]
    5744:	0584c148 	streq	r12, [r4, #328]	; 0x148
    5748:	e355001f 	cmp	r5, #31
    574c:	e24dd010 	sub	sp, sp, #16
    5750:	e1a06000 	mov	r6, r0
    5754:	da000015 	ble	57b0 <__register_exitproc+0x88>
    5758:	e59f00b8 	ldr	r0, [pc, #184]	; 5818 <__register_exitproc+0xf0>
    575c:	e3500000 	cmp	r0, #0
    5760:	1a000001 	bne	576c <__register_exitproc+0x44>
    5764:	e3e00000 	mvn	r0, #0
    5768:	ea000018 	b	57d0 <__register_exitproc+0xa8>
    576c:	e3a00e19 	mov	r0, #400	; 0x190
    5770:	e58d100c 	str	r1, [sp, #12]
    5774:	e58d2008 	str	r2, [sp, #8]
    5778:	e58d3004 	str	r3, [sp, #4]
    577c:	e320f000 	nop	{0}
    5780:	e250c000 	subs	r12, r0, #0
    5784:	e59d100c 	ldr	r1, [sp, #12]
    5788:	e59d2008 	ldr	r2, [sp, #8]
    578c:	e59d3004 	ldr	r3, [sp, #4]
    5790:	0afffff3 	beq	5764 <__register_exitproc+0x3c>
    5794:	e5945148 	ldr	r5, [r4, #328]	; 0x148
    5798:	e3a00000 	mov	r0, #0
    579c:	e58c0004 	str	r0, [r12, #4]
    57a0:	e58c5000 	str	r5, [r12]
    57a4:	e584c148 	str	r12, [r4, #328]	; 0x148
    57a8:	e58c0188 	str	r0, [r12, #392]	; 0x188
    57ac:	e58c018c 	str	r0, [r12, #396]	; 0x18c
    57b0:	e3560000 	cmp	r6, #0
    57b4:	e59c4004 	ldr	r4, [r12, #4]
    57b8:	1a000007 	bne	57dc <__register_exitproc+0xb4>
    57bc:	e2843002 	add	r3, r4, #2
    57c0:	e2844001 	add	r4, r4, #1
    57c4:	e78c1103 	str	r1, [r12, r3, lsl #2]
    57c8:	e58c4004 	str	r4, [r12, #4]
    57cc:	e3a00000 	mov	r0, #0
    57d0:	e28dd010 	add	sp, sp, #16
    57d4:	e8bd41f0 	pop	{r4, r5, r6, r7, r8, lr}
    57d8:	e12fff1e 	bx	lr
    57dc:	e3a00001 	mov	r0, #1
    57e0:	e1a00410 	lsl	r0, r0, r4
    57e4:	e08c8104 	add	r8, r12, r4, lsl #2
    57e8:	e3560002 	cmp	r6, #2
    57ec:	e59c7188 	ldr	r7, [r12, #392]	; 0x188
    57f0:	e5883108 	str	r3, [r8, #264]	; 0x108
    57f4:	059c318c 	ldreq	r3, [r12, #396]	; 0x18c
    57f8:	e1877000 	orr	r7, r7, r0
    57fc:	01830000 	orreq	r0, r3, r0
    5800:	e1a05008 	mov	r5, r8
    5804:	e5882088 	str	r2, [r8, #136]	; 0x88
    5808:	e58c7188 	str	r7, [r12, #392]	; 0x188
    580c:	058c018c 	streq	r0, [r12, #396]	; 0x18c
    5810:	eaffffe9 	b	57bc <__register_exitproc+0x94>
    5814:	00013d58 	.word	0x00013d58
    5818:	00000000 	.word	0x00000000

0000581c <__call_exitprocs>:
    581c:	e92d4ff0 	push	{r4, r5, r6, r7, r8, r9, r10, r11, lr}
    5820:	e59f3168 	ldr	r3, [pc, #360]	; 5990 <__call_exitprocs+0x174>
    5824:	e5933000 	ldr	r3, [r3]
    5828:	e24dd014 	sub	sp, sp, #20
    582c:	e58d3004 	str	r3, [sp, #4]
    5830:	e2833f52 	add	r3, r3, #328	; 0x148
    5834:	e58d0008 	str	r0, [sp, #8]
    5838:	e58d300c 	str	r3, [sp, #12]
    583c:	e1a07001 	mov	r7, r1
    5840:	e3a08001 	mov	r8, #1
    5844:	e59d3004 	ldr	r3, [sp, #4]
    5848:	e5936148 	ldr	r6, [r3, #328]	; 0x148
    584c:	e3560000 	cmp	r6, #0
    5850:	e59db00c 	ldr	r11, [sp, #12]
    5854:	0a000033 	beq	5928 <__call_exitprocs+0x10c>
    5858:	e5965004 	ldr	r5, [r6, #4]
    585c:	e2554001 	subs	r4, r5, #1
    5860:	5286a088 	addpl	r10, r6, #136	; 0x88
    5864:	5285501f 	addpl	r5, r5, #31
    5868:	508a5105 	addpl	r5, r10, r5, lsl #2
    586c:	5a000007 	bpl	5890 <__call_exitprocs+0x74>
    5870:	ea000029 	b	591c <__call_exitprocs+0x100>
    5874:	e5953000 	ldr	r3, [r5]
    5878:	e1530007 	cmp	r3, r7
    587c:	0a000005 	beq	5898 <__call_exitprocs+0x7c>
    5880:	e2444001 	sub	r4, r4, #1
    5884:	e3740001 	cmn	r4, #1
    5888:	e2455004 	sub	r5, r5, #4
    588c:	0a000022 	beq	591c <__call_exitprocs+0x100>
    5890:	e3570000 	cmp	r7, #0
    5894:	1afffff6 	bne	5874 <__call_exitprocs+0x58>
    5898:	e5963004 	ldr	r3, [r6, #4]
    589c:	e06a2005 	rsb	r2, r10, r5
    58a0:	e2433001 	sub	r3, r3, #1
    58a4:	e0862002 	add	r2, r6, r2
    58a8:	e1530004 	cmp	r3, r4
    58ac:	e5123078 	ldr	r3, [r2, #-120]	; 0xffffff88
    58b0:	13a01000 	movne	r1, #0
    58b4:	05864004 	streq	r4, [r6, #4]
    58b8:	15021078 	strne	r1, [r2, #-120]	; 0xffffff88
    58bc:	e3530000 	cmp	r3, #0
    58c0:	0affffee 	beq	5880 <__call_exitprocs+0x64>
    58c4:	e1a02418 	lsl	r2, r8, r4
    58c8:	e5961188 	ldr	r1, [r6, #392]	; 0x188
    58cc:	e1120001 	tst	r2, r1
    58d0:	e5969004 	ldr	r9, [r6, #4]
    58d4:	0a000016 	beq	5934 <__call_exitprocs+0x118>
    58d8:	e596118c 	ldr	r1, [r6, #396]	; 0x18c
    58dc:	e1120001 	tst	r2, r1
    58e0:	1a000016 	bne	5940 <__call_exitprocs+0x124>
    58e4:	e59d0008 	ldr	r0, [sp, #8]
    58e8:	e5151080 	ldr	r1, [r5, #-128]	; 0xffffff80
    58ec:	e1a0e00f 	mov	lr, pc
    58f0:	e12fff13 	bx	r3
    58f4:	e5963004 	ldr	r3, [r6, #4]
    58f8:	e1530009 	cmp	r3, r9
    58fc:	1affffd0 	bne	5844 <__call_exitprocs+0x28>
    5900:	e59b3000 	ldr	r3, [r11]
    5904:	e1530006 	cmp	r3, r6
    5908:	1affffcd 	bne	5844 <__call_exitprocs+0x28>
    590c:	e2444001 	sub	r4, r4, #1
    5910:	e3740001 	cmn	r4, #1
    5914:	e2455004 	sub	r5, r5, #4
    5918:	1affffdc 	bne	5890 <__call_exitprocs+0x74>
    591c:	e59f1070 	ldr	r1, [pc, #112]	; 5994 <__call_exitprocs+0x178>
    5920:	e3510000 	cmp	r1, #0
    5924:	1a000009 	bne	5950 <__call_exitprocs+0x134>
    5928:	e28dd014 	add	sp, sp, #20
    592c:	e8bd4ff0 	pop	{r4, r5, r6, r7, r8, r9, r10, r11, lr}
    5930:	e12fff1e 	bx	lr
    5934:	e1a0e00f 	mov	lr, pc
    5938:	e12fff13 	bx	r3
    593c:	eaffffec 	b	58f4 <__call_exitprocs+0xd8>
    5940:	e5150080 	ldr	r0, [r5, #-128]	; 0xffffff80
    5944:	e1a0e00f 	mov	lr, pc
    5948:	e12fff13 	bx	r3
    594c:	eaffffe8 	b	58f4 <__call_exitprocs+0xd8>
    5950:	e5963004 	ldr	r3, [r6, #4]
    5954:	e3530000 	cmp	r3, #0
    5958:	e5963000 	ldr	r3, [r6]
    595c:	1a000008 	bne	5984 <__call_exitprocs+0x168>
    5960:	e3530000 	cmp	r3, #0
    5964:	0a000006 	beq	5984 <__call_exitprocs+0x168>
    5968:	e1a00006 	mov	r0, r6
    596c:	e58b3000 	str	r3, [r11]
    5970:	e320f000 	nop	{0}
    5974:	e59b6000 	ldr	r6, [r11]
    5978:	e3560000 	cmp	r6, #0
    597c:	1affffb5 	bne	5858 <__call_exitprocs+0x3c>
    5980:	eaffffe8 	b	5928 <__call_exitprocs+0x10c>
    5984:	e1a0b006 	mov	r11, r6
    5988:	e1a06003 	mov	r6, r3
    598c:	eafffff9 	b	5978 <__call_exitprocs+0x15c>
    5990:	00013d58 	.word	0x00013d58
    5994:	00000000 	.word	0x00000000

00005998 <register_fini>:
    5998:	e92d4008 	push	{r3, lr}
    599c:	e59f3010 	ldr	r3, [pc, #16]	; 59b4 <register_fini+0x1c>
    59a0:	e3530000 	cmp	r3, #0
    59a4:	159f000c 	ldrne	r0, [pc, #12]	; 59b8 <register_fini+0x20>
    59a8:	1bfff0b1 	blne	1c74 <atexit>
    59ac:	e8bd4008 	pop	{r3, lr}
    59b0:	e12fff1e 	bx	lr
    59b4:	00014114 	.word	0x00014114
    59b8:	00007798 	.word	0x00007798
    59bc:	00000000 	.word	0x00000000

000059c0 <quorem>:
    59c0:	e92d4ff8 	push	{r3, r4, r5, r6, r7, r8, r9, r10, r11, lr}
    59c4:	e5903010 	ldr	r3, [r0, #16]
    59c8:	e5916010 	ldr	r6, [r1, #16]
    59cc:	e1560003 	cmp	r6, r3
    59d0:	e1a0a000 	mov	r10, r0
    59d4:	e1a05001 	mov	r5, r1
    59d8:	c3a00000 	movgt	r0, #0
    59dc:	ca00006d 	bgt	5b98 <quorem+0x1d8>
    59e0:	e2863003 	add	r3, r6, #3
    59e4:	e1a03103 	lsl	r3, r3, #2
    59e8:	e0819003 	add	r9, r1, r3
    59ec:	e5991004 	ldr	r1, [r9, #4]
    59f0:	e08a3003 	add	r3, r10, r3
    59f4:	e5930004 	ldr	r0, [r3, #4]
    59f8:	e2811001 	add	r1, r1, #1
    59fc:	ebfff045 	bl	1b18 <__aeabi_uidiv>
    5a00:	e2507000 	subs	r7, r0, #0
    5a04:	e2466001 	sub	r6, r6, #1
    5a08:	e2899004 	add	r9, r9, #4
    5a0c:	e2854014 	add	r4, r5, #20
    5a10:	e28a8014 	add	r8, r10, #20
    5a14:	0a000030 	beq	5adc <quorem+0x11c>
    5a18:	e3a0c000 	mov	r12, #0
    5a1c:	e1a02008 	mov	r2, r8
    5a20:	e1a03004 	mov	r3, r4
    5a24:	e1a0000c 	mov	r0, r12
    5a28:	e493e004 	ldr	lr, [r3], #4
    5a2c:	e1a0b80e 	lsl	r11, lr, #16
    5a30:	e1a0b82b 	lsr	r11, r11, #16
    5a34:	e1a0e82e 	lsr	lr, lr, #16
    5a38:	e02bcb97 	mla	r11, r7, r11, r12
    5a3c:	e00c0e97 	mul	r12, r7, lr
    5a40:	e592e000 	ldr	lr, [r2]
    5a44:	e08cc82b 	add	r12, r12, r11, lsr #16
    5a48:	e1a0180e 	lsl	r1, lr, #16
    5a4c:	e0801821 	add	r1, r0, r1, lsr #16
    5a50:	e1a0b80b 	lsl	r11, r11, #16
    5a54:	e1a0080c 	lsl	r0, r12, #16
    5a58:	e041182b 	sub	r1, r1, r11, lsr #16
    5a5c:	e1a00820 	lsr	r0, r0, #16
    5a60:	e060082e 	rsb	r0, r0, lr, lsr #16
    5a64:	e1a0b801 	lsl	r11, r1, #16
    5a68:	e0800841 	add	r0, r0, r1, asr #16
    5a6c:	e1a0182b 	lsr	r1, r11, #16
    5a70:	e1811800 	orr	r1, r1, r0, lsl #16
    5a74:	e1590003 	cmp	r9, r3
    5a78:	e1a0c82c 	lsr	r12, r12, #16
    5a7c:	e1a00840 	asr	r0, r0, #16
    5a80:	e4821004 	str	r1, [r2], #4
    5a84:	2affffe7 	bcs	5a28 <quorem+0x68>
    5a88:	e2863004 	add	r3, r6, #4
    5a8c:	e08a3103 	add	r3, r10, r3, lsl #2
    5a90:	e5932004 	ldr	r2, [r3, #4]
    5a94:	e3520000 	cmp	r2, #0
    5a98:	1a00000f 	bne	5adc <quorem+0x11c>
    5a9c:	e1580003 	cmp	r8, r3
    5aa0:	e2832004 	add	r2, r3, #4
    5aa4:	2a00000b 	bcs	5ad8 <quorem+0x118>
    5aa8:	e5122004 	ldr	r2, [r2, #-4]
    5aac:	e3520000 	cmp	r2, #0
    5ab0:	1a000008 	bne	5ad8 <quorem+0x118>
    5ab4:	e2433004 	sub	r3, r3, #4
    5ab8:	ea000003 	b	5acc <quorem+0x10c>
    5abc:	e5932000 	ldr	r2, [r3]
    5ac0:	e3520000 	cmp	r2, #0
    5ac4:	e2433004 	sub	r3, r3, #4
    5ac8:	1a000002 	bne	5ad8 <quorem+0x118>
    5acc:	e1580003 	cmp	r8, r3
    5ad0:	e2466001 	sub	r6, r6, #1
    5ad4:	3afffff8 	bcc	5abc <quorem+0xfc>
    5ad8:	e58a6010 	str	r6, [r10, #16]
    5adc:	e1a0000a 	mov	r0, r10
    5ae0:	e1a01005 	mov	r1, r5
    5ae4:	eb000eab 	bl	9598 <__mcmp>
    5ae8:	e3500000 	cmp	r0, #0
    5aec:	ba000028 	blt	5b94 <quorem+0x1d4>
    5af0:	e2877001 	add	r7, r7, #1
    5af4:	e1a03008 	mov	r3, r8
    5af8:	e3a02000 	mov	r2, #0
    5afc:	e4945004 	ldr	r5, [r4], #4
    5b00:	e593c000 	ldr	r12, [r3]
    5b04:	e1a01805 	lsl	r1, r5, #16
    5b08:	e1a0080c 	lsl	r0, r12, #16
    5b0c:	e1a01821 	lsr	r1, r1, #16
    5b10:	e0611820 	rsb	r1, r1, r0, lsr #16
    5b14:	e0811002 	add	r1, r1, r2
    5b18:	e1a02825 	lsr	r2, r5, #16
    5b1c:	e062282c 	rsb	r2, r2, r12, lsr #16
    5b20:	e1a00801 	lsl	r0, r1, #16
    5b24:	e0822841 	add	r2, r2, r1, asr #16
    5b28:	e1a01820 	lsr	r1, r0, #16
    5b2c:	e1811802 	orr	r1, r1, r2, lsl #16
    5b30:	e1590004 	cmp	r9, r4
    5b34:	e1a02842 	asr	r2, r2, #16
    5b38:	e4831004 	str	r1, [r3], #4
    5b3c:	2affffee 	bcs	5afc <quorem+0x13c>
    5b40:	e2863004 	add	r3, r6, #4
    5b44:	e08a3103 	add	r3, r10, r3, lsl #2
    5b48:	e5932004 	ldr	r2, [r3, #4]
    5b4c:	e3520000 	cmp	r2, #0
    5b50:	1a00000f 	bne	5b94 <quorem+0x1d4>
    5b54:	e1580003 	cmp	r8, r3
    5b58:	e2832004 	add	r2, r3, #4
    5b5c:	2a00000b 	bcs	5b90 <quorem+0x1d0>
    5b60:	e5122004 	ldr	r2, [r2, #-4]
    5b64:	e3520000 	cmp	r2, #0
    5b68:	1a000008 	bne	5b90 <quorem+0x1d0>
    5b6c:	e2433004 	sub	r3, r3, #4
    5b70:	ea000003 	b	5b84 <quorem+0x1c4>
    5b74:	e5932000 	ldr	r2, [r3]
    5b78:	e3520000 	cmp	r2, #0
    5b7c:	e2433004 	sub	r3, r3, #4
    5b80:	1a000002 	bne	5b90 <quorem+0x1d0>
    5b84:	e1580003 	cmp	r8, r3
    5b88:	e2466001 	sub	r6, r6, #1
    5b8c:	3afffff8 	bcc	5b74 <quorem+0x1b4>
    5b90:	e58a6010 	str	r6, [r10, #16]
    5b94:	e1a00007 	mov	r0, r7
    5b98:	e8bd4ff8 	pop	{r3, r4, r5, r6, r7, r8, r9, r10, r11, lr}
    5b9c:	e12fff1e 	bx	lr

00005ba0 <_dtoa_r>:
    5ba0:	e92d4ff0 	push	{r4, r5, r6, r7, r8, r9, r10, r11, lr}
    5ba4:	e5901040 	ldr	r1, [r0, #64]	; 0x40
    5ba8:	e24dd07c 	sub	sp, sp, #124	; 0x7c
    5bac:	e3510000 	cmp	r1, #0
    5bb0:	e1a06000 	mov	r6, r0
    5bb4:	e59d40ac 	ldr	r4, [sp, #172]	; 0xac
    5bb8:	e58d2010 	str	r2, [sp, #16]
    5bbc:	e58d3014 	str	r3, [sp, #20]
    5bc0:	0a000007 	beq	5be4 <_dtoa_r+0x44>
    5bc4:	e5903044 	ldr	r3, [r0, #68]	; 0x44
    5bc8:	e3a02001 	mov	r2, #1
    5bcc:	e1a02312 	lsl	r2, r2, r3
    5bd0:	e5813004 	str	r3, [r1, #4]
    5bd4:	e5812008 	str	r2, [r1, #8]
    5bd8:	eb000cbb 	bl	8ecc <_Bfree>
    5bdc:	e3a03000 	mov	r3, #0
    5be0:	e5863040 	str	r3, [r6, #64]	; 0x40
    5be4:	e59da014 	ldr	r10, [sp, #20]
    5be8:	e35a0000 	cmp	r10, #0
    5bec:	b3a03001 	movlt	r3, #1
    5bf0:	a3a03000 	movge	r3, #0
    5bf4:	b5843000 	strlt	r3, [r4]
    5bf8:	a5843000 	strge	r3, [r4]
    5bfc:	e59f3570 	ldr	r3, [pc, #1392]	; 6174 <_dtoa_r+0x5d4>
    5c00:	b3caa102 	biclt	r10, r10, #-2147483648	; 0x80000000
    5c04:	e59f2568 	ldr	r2, [pc, #1384]	; 6174 <_dtoa_r+0x5d4>
    5c08:	b1a0100a 	movlt	r1, r10
    5c0c:	e00a3003 	and	r3, r10, r3
    5c10:	b58d1014 	strlt	r1, [sp, #20]
    5c14:	e1530002 	cmp	r3, r2
    5c18:	0a000016 	beq	5c78 <_dtoa_r+0xd8>
    5c1c:	e28d5010 	add	r5, sp, #16
    5c20:	e8950030 	ldm	r5, {r4, r5}
    5c24:	e3a02000 	mov	r2, #0
    5c28:	e1a00004 	mov	r0, r4
    5c2c:	e1a01005 	mov	r1, r5
    5c30:	e3a03000 	mov	r3, #0
    5c34:	eb00355f 	bl	131b8 <__aeabi_dcmpeq>
    5c38:	e3500000 	cmp	r0, #0
    5c3c:	0a00001e 	beq	5cbc <_dtoa_r+0x11c>
    5c40:	e59d40b0 	ldr	r4, [sp, #176]	; 0xb0
    5c44:	e59dc0a8 	ldr	r12, [sp, #168]	; 0xa8
    5c48:	e3a03001 	mov	r3, #1
    5c4c:	e3540000 	cmp	r4, #0
    5c50:	e58c3000 	str	r3, [r12]
    5c54:	0a00009a 	beq	5ec4 <_dtoa_r+0x324>
    5c58:	e59f44e8 	ldr	r4, [pc, #1256]	; 6148 <_dtoa_r+0x5a8>
    5c5c:	e59dc0b0 	ldr	r12, [sp, #176]	; 0xb0
    5c60:	e58c4000 	str	r4, [r12]
    5c64:	e2444001 	sub	r4, r4, #1
    5c68:	e1a00004 	mov	r0, r4
    5c6c:	e28dd07c 	add	sp, sp, #124	; 0x7c
    5c70:	e8bd4ff0 	pop	{r4, r5, r6, r7, r8, r9, r10, r11, lr}
    5c74:	e12fff1e 	bx	lr
    5c78:	e59d2010 	ldr	r2, [sp, #16]
    5c7c:	e59f34c8 	ldr	r3, [pc, #1224]	; 614c <_dtoa_r+0x5ac>
    5c80:	e59d40a8 	ldr	r4, [sp, #168]	; 0xa8
    5c84:	e3520000 	cmp	r2, #0
    5c88:	e5843000 	str	r3, [r4]
    5c8c:	0a000079 	beq	5e78 <_dtoa_r+0x2d8>
    5c90:	e59f44b8 	ldr	r4, [pc, #1208]	; 6150 <_dtoa_r+0x5b0>
    5c94:	e59dc0b0 	ldr	r12, [sp, #176]	; 0xb0
    5c98:	e35c0000 	cmp	r12, #0
    5c9c:	0afffff1 	beq	5c68 <_dtoa_r+0xc8>
    5ca0:	e5d43003 	ldrb	r3, [r4, #3]
    5ca4:	e59dc0b0 	ldr	r12, [sp, #176]	; 0xb0
    5ca8:	e3530000 	cmp	r3, #0
    5cac:	12843008 	addne	r3, r4, #8
    5cb0:	02843003 	addeq	r3, r4, #3
    5cb4:	e58c3000 	str	r3, [r12]
    5cb8:	eaffffea 	b	5c68 <_dtoa_r+0xc8>
    5cbc:	e28d3074 	add	r3, sp, #116	; 0x74
    5cc0:	e58d3000 	str	r3, [sp]
    5cc4:	e28d3070 	add	r3, sp, #112	; 0x70
    5cc8:	e58d3004 	str	r3, [sp, #4]
    5ccc:	e1a00006 	mov	r0, r6
    5cd0:	e1a02004 	mov	r2, r4
    5cd4:	e1a03005 	mov	r3, r5
    5cd8:	eb000ee6 	bl	9878 <__d2b>
    5cdc:	e1a0708a 	lsl	r7, r10, #1
    5ce0:	e1b07aa7 	lsrs	r7, r7, #21
    5ce4:	e1a0b000 	mov	r11, r0
    5ce8:	1a00006a 	bne	5e98 <_dtoa_r+0x2f8>
    5cec:	e59d8070 	ldr	r8, [sp, #112]	; 0x70
    5cf0:	e59d7074 	ldr	r7, [sp, #116]	; 0x74
    5cf4:	e3e03e41 	mvn	r3, #1040	; 0x410
    5cf8:	e0887007 	add	r7, r8, r7
    5cfc:	e1570003 	cmp	r7, r3
    5d00:	ba0001da 	blt	6470 <_dtoa_r+0x8d0>
    5d04:	e2870e41 	add	r0, r7, #1040	; 0x410
    5d08:	e59dc010 	ldr	r12, [sp, #16]
    5d0c:	e2800002 	add	r0, r0, #2
    5d10:	e1a0003c 	lsr	r0, r12, r0
    5d14:	e283301f 	add	r3, r3, #31
    5d18:	e0673003 	rsb	r3, r7, r3
    5d1c:	e180031a 	orr	r0, r0, r10, lsl r3
    5d20:	ebffeb43 	bl	a34 <__aeabi_ui2d>
    5d24:	e3a04001 	mov	r4, #1
    5d28:	e58d4060 	str	r4, [sp, #96]	; 0x60
    5d2c:	e241161f 	sub	r1, r1, #32505856	; 0x1f00000
    5d30:	e2477001 	sub	r7, r7, #1
    5d34:	e3a02000 	mov	r2, #0
    5d38:	e59f3414 	ldr	r3, [pc, #1044]	; 6154 <_dtoa_r+0x5b4>
    5d3c:	ebffea77 	bl	720 <__aeabi_dsub>
    5d40:	e28f3ffa 	add	r3, pc, #1000	; 0x3e8
    5d44:	e893000c 	ldm	r3, {r2, r3}
    5d48:	eb0033c0 	bl	12c50 <__aeabi_dmul>
    5d4c:	e28f3ff9 	add	r3, pc, #996	; 0x3e4
    5d50:	e893000c 	ldm	r3, {r2, r3}
    5d54:	ebffea72 	bl	724 <__adddf3>
    5d58:	e1a04000 	mov	r4, r0
    5d5c:	e1a00007 	mov	r0, r7
    5d60:	e1a05001 	mov	r5, r1
    5d64:	ebffeb3b 	bl	a58 <__aeabi_i2d>
    5d68:	e28f3e3d 	add	r3, pc, #976	; 0x3d0
    5d6c:	e893000c 	ldm	r3, {r2, r3}
    5d70:	eb0033b6 	bl	12c50 <__aeabi_dmul>
    5d74:	e1a02000 	mov	r2, r0
    5d78:	e1a03001 	mov	r3, r1
    5d7c:	e1a00004 	mov	r0, r4
    5d80:	e1a01005 	mov	r1, r5
    5d84:	ebffea66 	bl	724 <__adddf3>
    5d88:	e1a04000 	mov	r4, r0
    5d8c:	e1a05001 	mov	r5, r1
    5d90:	eb003526 	bl	13230 <__aeabi_d2iz>
    5d94:	e1a01005 	mov	r1, r5
    5d98:	e1a09000 	mov	r9, r0
    5d9c:	e3a02000 	mov	r2, #0
    5da0:	e1a00004 	mov	r0, r4
    5da4:	e3a03000 	mov	r3, #0
    5da8:	eb003508 	bl	131d0 <__aeabi_dcmplt>
    5dac:	e3500000 	cmp	r0, #0
    5db0:	1a0001a6 	bne	6450 <_dtoa_r+0x8b0>
